

Microchip MPLAB XC8 Assembler V3.10 build 20250813170317 
                                                                                               Fri Feb 13 20:34:29 2026

Microchip MPLAB XC8 C Compiler v3.10 (Free license) build 20250813170317 Og1 
     1                           	processor	18F47Q10
     2                           	fnconf	rparam,??,?,0
     3                           	pagewidth 120
     4                           	opt	flic
     5                           	psect	smallconst,global,reloc=2,class=SMALLCONST,space=0,delta=1,noexec
     6                           	psect	cinit,global,reloc=2,class=CODE,space=0,delta=1
     7                           	psect	bssCOMRAM,global,class=COMRAM,space=1,delta=1,lowdata,noexec
     8                           	psect	cstackCOMRAM,global,class=COMRAM,space=1,delta=1,lowdata,noexec
     9                           	psect	text0,global,reloc=2,class=CODE,space=0,delta=1
    10                           	psect	text1,global,reloc=2,class=CODE,space=0,delta=1
    11                           	psect	text2,global,reloc=2,class=CODE,space=0,delta=1
    12                           	psect	text3,global,reloc=2,class=CODE,space=0,delta=1
    13                           	psect	text4,global,reloc=2,class=CODE,space=0,delta=1
    14                           	psect	text5,global,reloc=2,class=CODE,space=0,delta=1
    15                           	psect	text6,global,reloc=2,class=CODE,space=0,delta=1
    16                           	psect	text7,global,reloc=2,class=CODE,space=0,delta=1
    17                           	psect	text8,global,reloc=2,class=CODE,space=0,delta=1,group=1
    18                           	psect	text9,global,reloc=2,class=CODE,space=0,delta=1,group=1
    19                           	psect	text10,global,reloc=2,class=CODE,space=0,delta=1,group=1
    20                           	psect	text11,global,reloc=2,class=CODE,space=0,delta=1
    21                           	psect	text12,global,reloc=2,class=CODE,space=0,delta=1
    22                           	psect	text13,global,reloc=2,class=CODE,space=0,delta=1
    23                           	psect	text14,global,reloc=2,class=CODE,space=0,delta=1,group=1
    24                           	psect	text15,global,reloc=2,class=CODE,space=0,delta=1,group=1
    25                           	psect	text16,global,reloc=2,class=CODE,space=0,delta=1
    26                           	psect	text17,global,reloc=2,class=CODE,space=0,delta=1,group=2
    27                           	psect	text18,global,reloc=2,class=CODE,space=0,delta=1
    28                           	psect	text19,global,reloc=2,class=CODE,space=0,delta=1
    29                           	psect	text20,global,reloc=2,class=CODE,space=0,delta=1
    30                           	psect	intsave_regs,global,class=BIGRAM,space=1,delta=1,noexec
    31                           	psect	rparam,global,class=COMRAM,space=1,delta=1,noexec
    32                           	psect	config,global,abs,ovrld,class=CONFIG,space=4,delta=1,noexec
    33   000000                     
    34                           ; Generated 04/02/2025 GMT
    35                           ; 
    36                           ; Copyright © 2025, Microchip Technology Inc. and its subsidiaries ("Microchip")
    37                           ; All rights reserved.
    38                           ; 
    39                           ; This software is developed by Microchip Technology Inc. and its subsidiaries ("Microch
      +                          ip").
    40                           ; 
    41                           ; Redistribution and use in source and binary forms, with or without modification, are
    42                           ; permitted provided that the following conditions are met:
    43                           ; 
    44                           ;     1. Redistributions of source code must retain the above copyright notice, this lis
      +                          t of
    45                           ;        conditions and the following disclaimer.
    46                           ; 
    47                           ;     2. Redistributions in binary form must reproduce the above copyright notice, this 
      +                          list
    48                           ;        of conditions and the following disclaimer in the documentation and/or other
    49                           ;        materials provided with the distribution. Publication is not required when
    50                           ;        this file is used in an embedded application.
    51                           ; 
    52                           ;     3. Microchip's name may not be used to endorse or promote products derived from th
      +                          is
    53                           ;        software without specific prior written permission.
    54                           ; 
    55                           ; THIS SOFTWARE IS PROVIDED BY MICROCHIP "AS IS" AND ANY EXPRESS OR IMPLIED WARRANTIES,
    56                           ; INCLUDING, BUT NOT LIMITED TO, THE IMPLIED WARRANTIES OF MERCHANTABILITY AND FITNESS F
      +                          OR
    57                           ; PURPOSE ARE DISCLAIMED.  IN NO EVENT SHALL MICROCHIP BE LIABLE FOR ANY DIRECT, INDIREC
      +                          T,
    58                           ; INCIDENTAL, SPECIAL, EXEMPLARY, OR CONSEQUENTIAL DAMAGES (INCLUDING BUT NOT LIMITED TO
    59                           ; PROCUREMENT OF SUBSTITUTE GOODS OR SERVICES; LOSS OF USE, DATA OR PROFITS; OR BUSINESS
    60                           ; INTERRUPTION) HOWSOEVER CAUSED AND ON ANY THEORY OF LIABILITY, WHETHER IN CONTRACT, ST
      +                          RICT
    61                           ; LIABILITY, OR TORT (INCLUDING NEGLIGENCE OR OTHERWISE) ARISING IN ANY WAY OUT OF THE U
      +                          SE OF
    62                           ; THIS SOFTWARE, EVEN IF ADVISED OF THE POSSIBILITY OF SUCH DAMAGE.
    63                           ; 
    64                           ; 
    65                           ; Code-generator required, PIC18F47Q10 Definitions
    66                           ; 
    67                           ; SFR Addresses
    68   000FE0                     bsr             equ	4064
    69   000FE9                     fsr0            equ	4073
    70   000FEA                     fsr0h           equ	4074
    71   000FE9                     fsr0l           equ	4073
    72   000FE1                     fsr1            equ	4065
    73   000FE2                     fsr1h           equ	4066
    74   000FE1                     fsr1l           equ	4065
    75   000FD9                     fsr2            equ	4057
    76   000FDA                     fsr2h           equ	4058
    77   000FD9                     fsr2l           equ	4057
    78   000FEF                     indf0           equ	4079
    79   000FE7                     indf1           equ	4071
    80   000FDF                     indf2           equ	4063
    81   000FF2                     intcon          equ	4082
    82   000F80                     nvmcon          equ	3968
    83   000FF9                     pcl             equ	4089
    84   000FFA                     pclath          equ	4090
    85   000FFB                     pclatu          equ	4091
    86   000FEB                     plusw0          equ	4075
    87   000FE3                     plusw1          equ	4067
    88   000FDB                     plusw2          equ	4059
    89   000FED                     postdec0        equ	4077
    90   000FE5                     postdec1        equ	4069
    91   000FDD                     postdec2        equ	4061
    92   000FEE                     postinc0        equ	4078
    93   000FE6                     postinc1        equ	4070
    94   000FDE                     postinc2        equ	4062
    95   000FEC                     preinc0         equ	4076
    96   000FE4                     preinc1         equ	4068
    97   000FDC                     preinc2         equ	4060
    98   000FF3                     prod            equ	4083
    99   000FF4                     prodh           equ	4084
   100   000FF3                     prodl           equ	4083
   101   000FD8                     status          equ	4056
   102   000FF5                     tablat          equ	4085
   103   000FF6                     tblptr          equ	4086
   104   000FF7                     tblptrh         equ	4087
   105   000FF6                     tblptrl         equ	4086
   106   000FF8                     tblptru         equ	4088
   107   000FFD                     tosl            equ	4093
   108   000FE8                     wreg            equ	4072
   109   000E1F                     CLCIN0PPS       equ	3615	;# 
   110   000E20                     CLCIN1PPS       equ	3616	;# 
   111   000E21                     CLCIN2PPS       equ	3617	;# 
   112   000E22                     CLCIN3PPS       equ	3618	;# 
   113   000E23                     CLCIN4PPS       equ	3619	;# 
   114   000E24                     CLCIN5PPS       equ	3620	;# 
   115   000E25                     CLCIN6PPS       equ	3621	;# 
   116   000E26                     CLCIN7PPS       equ	3622	;# 
   117   000E27                     CLC1CON         equ	3623	;# 
   118   000E28                     CLC1POL         equ	3624	;# 
   119   000E29                     CLC1SEL0        equ	3625	;# 
   120   000E2A                     CLC1SEL1        equ	3626	;# 
   121   000E2B                     CLC1SEL2        equ	3627	;# 
   122   000E2C                     CLC1SEL3        equ	3628	;# 
   123   000E2D                     CLC1GLS0        equ	3629	;# 
   124   000E2E                     CLC1GLS1        equ	3630	;# 
   125   000E2F                     CLC1GLS2        equ	3631	;# 
   126   000E30                     CLC1GLS3        equ	3632	;# 
   127   000E31                     CLC2CON         equ	3633	;# 
   128   000E32                     CLC2POL         equ	3634	;# 
   129   000E33                     CLC2SEL0        equ	3635	;# 
   130   000E34                     CLC2SEL1        equ	3636	;# 
   131   000E35                     CLC2SEL2        equ	3637	;# 
   132   000E36                     CLC2SEL3        equ	3638	;# 
   133   000E37                     CLC2GLS0        equ	3639	;# 
   134   000E38                     CLC2GLS1        equ	3640	;# 
   135   000E39                     CLC2GLS2        equ	3641	;# 
   136   000E3A                     CLC2GLS3        equ	3642	;# 
   137   000E3B                     CLC3CON         equ	3643	;# 
   138   000E3C                     CLC3POL         equ	3644	;# 
   139   000E3D                     CLC3SEL0        equ	3645	;# 
   140   000E3E                     CLC3SEL1        equ	3646	;# 
   141   000E3F                     CLC3SEL2        equ	3647	;# 
   142   000E40                     CLC3SEL3        equ	3648	;# 
   143   000E41                     CLC3GLS0        equ	3649	;# 
   144   000E42                     CLC3GLS1        equ	3650	;# 
   145   000E43                     CLC3GLS2        equ	3651	;# 
   146   000E44                     CLC3GLS3        equ	3652	;# 
   147   000E45                     CLC4CON         equ	3653	;# 
   148   000E46                     CLC4POL         equ	3654	;# 
   149   000E47                     CLC4SEL0        equ	3655	;# 
   150   000E48                     CLC4SEL1        equ	3656	;# 
   151   000E49                     CLC4SEL2        equ	3657	;# 
   152   000E4A                     CLC4SEL3        equ	3658	;# 
   153   000E4B                     CLC4GLS0        equ	3659	;# 
   154   000E4C                     CLC4GLS1        equ	3660	;# 
   155   000E4D                     CLC4GLS2        equ	3661	;# 
   156   000E4E                     CLC4GLS3        equ	3662	;# 
   157   000E4F                     CLC5CON         equ	3663	;# 
   158   000E50                     CLC5POL         equ	3664	;# 
   159   000E51                     CLC5SEL0        equ	3665	;# 
   160   000E52                     CLC5SEL1        equ	3666	;# 
   161   000E53                     CLC5SEL2        equ	3667	;# 
   162   000E54                     CLC5SEL3        equ	3668	;# 
   163   000E55                     CLC5GLS0        equ	3669	;# 
   164   000E56                     CLC5GLS1        equ	3670	;# 
   165   000E57                     CLC5GLS2        equ	3671	;# 
   166   000E58                     CLC5GLS3        equ	3672	;# 
   167   000E59                     CLC6CON         equ	3673	;# 
   168   000E5A                     CLC6POL         equ	3674	;# 
   169   000E5B                     CLC6SEL0        equ	3675	;# 
   170   000E5C                     CLC6SEL1        equ	3676	;# 
   171   000E5D                     CLC6SEL2        equ	3677	;# 
   172   000E5E                     CLC6SEL3        equ	3678	;# 
   173   000E5F                     CLC6GLS0        equ	3679	;# 
   174   000E60                     CLC6GLS1        equ	3680	;# 
   175   000E61                     CLC6GLS2        equ	3681	;# 
   176   000E62                     CLC6GLS3        equ	3682	;# 
   177   000E63                     CLC7CON         equ	3683	;# 
   178   000E64                     CLC7POL         equ	3684	;# 
   179   000E65                     CLC7SEL0        equ	3685	;# 
   180   000E66                     CLC7SEL1        equ	3686	;# 
   181   000E67                     CLC7SEL2        equ	3687	;# 
   182   000E68                     CLC7SEL3        equ	3688	;# 
   183   000E69                     CLC7GLS0        equ	3689	;# 
   184   000E6A                     CLC7GLS1        equ	3690	;# 
   185   000E6B                     CLC7GLS2        equ	3691	;# 
   186   000E6C                     CLC7GLS3        equ	3692	;# 
   187   000E6D                     CLC8CON         equ	3693	;# 
   188   000E6E                     CLC8POL         equ	3694	;# 
   189   000E6F                     CLC8SEL0        equ	3695	;# 
   190   000E70                     CLC8SEL1        equ	3696	;# 
   191   000E71                     CLC8SEL2        equ	3697	;# 
   192   000E72                     CLC8SEL3        equ	3698	;# 
   193   000E73                     CLC8GLS0        equ	3699	;# 
   194   000E74                     CLC8GLS1        equ	3700	;# 
   195   000E75                     CLC8GLS2        equ	3701	;# 
   196   000E76                     CLC8GLS3        equ	3702	;# 
   197   000E77                     CLCDATA         equ	3703	;# 
   198   000E88                     RX2PPS          equ	3720	;# 
   199   000E88                     RXDT2PPS        equ	3720	;# 
   200   000E89                     CK2PPS          equ	3721	;# 
   201   000E89                     TXCK2PPS        equ	3721	;# 
   202   000E89                     TX2PPS          equ	3721	;# 
   203   000E8A                     SSP2CLKPPS      equ	3722	;# 
   204   000E8B                     SSP2DATPPS      equ	3723	;# 
   205   000E8C                     SSP2SSPPS       equ	3724	;# 
   206   000E8D                     SSP2BUF         equ	3725	;# 
   207   000E8E                     SSP2ADD         equ	3726	;# 
   208   000E8F                     SSP2MSK         equ	3727	;# 
   209   000E90                     SSP2STAT        equ	3728	;# 
   210   000E91                     SSP2CON1        equ	3729	;# 
   211   000E92                     SSP2CON2        equ	3730	;# 
   212   000E93                     SSP2CON3        equ	3731	;# 
   213   000E94                     RC2REG          equ	3732	;# 
   214   000E94                     RCREG2          equ	3732	;# 
   215   000E95                     TX2REG          equ	3733	;# 
   216   000E95                     TXREG2          equ	3733	;# 
   217   000E96                     SP2BRG          equ	3734	;# 
   218   000E96                     SP2BRGL         equ	3734	;# 
   219   000E96                     SPBRG2          equ	3734	;# 
   220   000E97                     SP2BRGH         equ	3735	;# 
   221   000E97                     SPBRGH2         equ	3735	;# 
   222   000E98                     RC2STA          equ	3736	;# 
   223   000E98                     RCSTA2          equ	3736	;# 
   224   000E99                     TX2STA          equ	3737	;# 
   225   000E99                     TXSTA2          equ	3737	;# 
   226   000E9A                     BAUD2CON        equ	3738	;# 
   227   000E9A                     BAUDCON2        equ	3738	;# 
   228   000E9A                     BAUDCTL2        equ	3738	;# 
   229   000E9B                     PPSLOCK         equ	3739	;# 
   230   000E9C                     INT0PPS         equ	3740	;# 
   231   000E9D                     INT1PPS         equ	3741	;# 
   232   000E9E                     INT2PPS         equ	3742	;# 
   233   000E9F                     T0CKIPPS        equ	3743	;# 
   234   000EA0                     T1CKIPPS        equ	3744	;# 
   235   000EA1                     T1GPPS          equ	3745	;# 
   236   000EA2                     T3CKIPPS        equ	3746	;# 
   237   000EA3                     T3GPPS          equ	3747	;# 
   238   000EA4                     T5CKIPPS        equ	3748	;# 
   239   000EA5                     T5GPPS          equ	3749	;# 
   240   000EA6                     T2INPPS         equ	3750	;# 
   241   000EA7                     T4INPPS         equ	3751	;# 
   242   000EA8                     T6INPPS         equ	3752	;# 
   243   000EA9                     ADACTPPS        equ	3753	;# 
   244   000EAA                     CCP1PPS         equ	3754	;# 
   245   000EAB                     CCP2PPS         equ	3755	;# 
   246   000EAC                     CWG1PPS         equ	3756	;# 
   247   000EAC                     CWGPPS          equ	3756	;# 
   248   000EAC                     CWG1INPPS       equ	3756	;# 
   249   000EAC                     CWGINPPS        equ	3756	;# 
   250   000EAD                     MDCARLPPS       equ	3757	;# 
   251   000EAE                     MDCARHPPS       equ	3758	;# 
   252   000EAF                     MDSRCPPS        equ	3759	;# 
   253   000EB0                     RX1PPS          equ	3760	;# 
   254   000EB0                     RXPPS           equ	3760	;# 
   255   000EB0                     RXDT1PPS        equ	3760	;# 
   256   000EB1                     CK1PPS          equ	3761	;# 
   257   000EB1                     TXPPS           equ	3761	;# 
   258   000EB1                     CKPPS           equ	3761	;# 
   259   000EB1                     TX1PPS          equ	3761	;# 
   260   000EB1                     TXCK1PPS        equ	3761	;# 
   261   000EB2                     SSP1CLKPPS      equ	3762	;# 
   262   000EB2                     SSPCLKPPS       equ	3762	;# 
   263   000EB3                     SSP1DATPPS      equ	3763	;# 
   264   000EB3                     SSPDATPPS       equ	3763	;# 
   265   000EB4                     SSP1SSPPS       equ	3764	;# 
   266   000EB4                     SSPSSPPS        equ	3764	;# 
   267   000EB5                     IPR0            equ	3765	;# 
   268   000EB6                     IPR1            equ	3766	;# 
   269   000EB7                     IPR2            equ	3767	;# 
   270   000EB8                     IPR3            equ	3768	;# 
   271   000EB9                     IPR4            equ	3769	;# 
   272   000EBA                     IPR5            equ	3770	;# 
   273   000EBB                     IPR6            equ	3771	;# 
   274   000EBC                     IPR7            equ	3772	;# 
   275   000EBD                     PIE0            equ	3773	;# 
   276   000EBE                     PIE1            equ	3774	;# 
   277   000EBF                     PIE2            equ	3775	;# 
   278   000EC0                     PIE3            equ	3776	;# 
   279   000EC1                     PIE4            equ	3777	;# 
   280   000EC2                     PIE5            equ	3778	;# 
   281   000EC3                     PIE6            equ	3779	;# 
   282   000EC4                     PIE7            equ	3780	;# 
   283   000EC5                     PIR0            equ	3781	;# 
   284   000EC6                     PIR1            equ	3782	;# 
   285   000EC7                     PIR2            equ	3783	;# 
   286   000EC8                     PIR3            equ	3784	;# 
   287   000EC9                     PIR4            equ	3785	;# 
   288   000ECA                     PIR5            equ	3786	;# 
   289   000ECB                     PIR6            equ	3787	;# 
   290   000ECC                     PIR7            equ	3788	;# 
   291   000ECD                     WDTCON0         equ	3789	;# 
   292   000ECE                     WDTCON1         equ	3790	;# 
   293   000ECF                     WDTPSL          equ	3791	;# 
   294   000ED0                     WDTPSH          equ	3792	;# 
   295   000ED1                     WDTTMR          equ	3793	;# 
   296   000ED2                     CPUDOZE         equ	3794	;# 
   297   000ED3                     OSCCON1         equ	3795	;# 
   298   000ED4                     OSCCON2         equ	3796	;# 
   299   000ED5                     OSCCON3         equ	3797	;# 
   300   000ED6                     OSCSTAT         equ	3798	;# 
   301   000ED6                     OSCSTAT1        equ	3798	;# 
   302   000ED7                     OSCEN           equ	3799	;# 
   303   000ED8                     OSCTUNE         equ	3800	;# 
   304   000ED9                     OSCFRQ          equ	3801	;# 
   305   000ED9                     OSCFREQ         equ	3801	;# 
   306   000EDA                     VREGCON         equ	3802	;# 
   307   000EDB                     BORCON          equ	3803	;# 
   308   000EDC                     PMD0            equ	3804	;# 
   309   000EDD                     PMD1            equ	3805	;# 
   310   000EDE                     PMD2            equ	3806	;# 
   311   000EDF                     PMD3            equ	3807	;# 
   312   000EE0                     PMD4            equ	3808	;# 
   313   000EE1                     PMD5            equ	3809	;# 
   314   000EE2                     RA0PPS          equ	3810	;# 
   315   000EE3                     RA1PPS          equ	3811	;# 
   316   000EE4                     RA2PPS          equ	3812	;# 
   317   000EE5                     RA3PPS          equ	3813	;# 
   318   000EE6                     RA4PPS          equ	3814	;# 
   319   000EE7                     RA5PPS          equ	3815	;# 
   320   000EE8                     RA6PPS          equ	3816	;# 
   321   000EE9                     RA7PPS          equ	3817	;# 
   322   000EEA                     RB0PPS          equ	3818	;# 
   323   000EEB                     RB1PPS          equ	3819	;# 
   324   000EEC                     RB2PPS          equ	3820	;# 
   325   000EED                     RB3PPS          equ	3821	;# 
   326   000EEE                     RB4PPS          equ	3822	;# 
   327   000EEF                     RB5PPS          equ	3823	;# 
   328   000EF0                     RB6PPS          equ	3824	;# 
   329   000EF1                     RB7PPS          equ	3825	;# 
   330   000EF2                     RC0PPS          equ	3826	;# 
   331   000EF3                     RC1PPS          equ	3827	;# 
   332   000EF4                     RC2PPS          equ	3828	;# 
   333   000EF5                     RC3PPS          equ	3829	;# 
   334   000EF6                     RC4PPS          equ	3830	;# 
   335   000EF7                     RC5PPS          equ	3831	;# 
   336   000EF8                     RC6PPS          equ	3832	;# 
   337   000EF9                     RC7PPS          equ	3833	;# 
   338   000EFA                     RD0PPS          equ	3834	;# 
   339   000EFB                     RD1PPS          equ	3835	;# 
   340   000EFC                     RD2PPS          equ	3836	;# 
   341   000EFD                     RD3PPS          equ	3837	;# 
   342   000EFE                     RD4PPS          equ	3838	;# 
   343   000EFF                     RD5PPS          equ	3839	;# 
   344   000F00                     RD6PPS          equ	3840	;# 
   345   000F01                     RD7PPS          equ	3841	;# 
   346   000F02                     RE0PPS          equ	3842	;# 
   347   000F03                     RE1PPS          equ	3843	;# 
   348   000F04                     RE2PPS          equ	3844	;# 
   349   000F05                     IOCAF           equ	3845	;# 
   350   000F06                     IOCAN           equ	3846	;# 
   351   000F07                     IOCAP           equ	3847	;# 
   352   000F08                     INLVLA          equ	3848	;# 
   353   000F09                     SLRCONA         equ	3849	;# 
   354   000F0A                     ODCONA          equ	3850	;# 
   355   000F0B                     WPUA            equ	3851	;# 
   356   000F0C                     ANSELA          equ	3852	;# 
   357   000F0D                     IOCBF           equ	3853	;# 
   358   000F0E                     IOCBN           equ	3854	;# 
   359   000F0F                     IOCBP           equ	3855	;# 
   360   000F10                     INLVLB          equ	3856	;# 
   361   000F11                     SLRCONB         equ	3857	;# 
   362   000F12                     ODCONB          equ	3858	;# 
   363   000F13                     WPUB            equ	3859	;# 
   364   000F14                     ANSELB          equ	3860	;# 
   365   000F15                     IOCCF           equ	3861	;# 
   366   000F16                     IOCCN           equ	3862	;# 
   367   000F17                     IOCCP           equ	3863	;# 
   368   000F18                     INLVLC          equ	3864	;# 
   369   000F19                     SLRCONC         equ	3865	;# 
   370   000F1A                     ODCONC          equ	3866	;# 
   371   000F1B                     WPUC            equ	3867	;# 
   372   000F1C                     ANSELC          equ	3868	;# 
   373   000F1D                     INLVLD          equ	3869	;# 
   374   000F1E                     SLRCOND         equ	3870	;# 
   375   000F1F                     ODCOND          equ	3871	;# 
   376   000F20                     WPUD            equ	3872	;# 
   377   000F21                     ANSELD          equ	3873	;# 
   378   000F22                     IOCEF           equ	3874	;# 
   379   000F23                     IOCEN           equ	3875	;# 
   380   000F24                     IOCEP           equ	3876	;# 
   381   000F25                     INLVLE          equ	3877	;# 
   382   000F26                     SLRCONE         equ	3878	;# 
   383   000F27                     ODCONE          equ	3879	;# 
   384   000F28                     WPUE            equ	3880	;# 
   385   000F29                     ANSELE          equ	3881	;# 
   386   000F2A                     HLVDCON0        equ	3882	;# 
   387   000F2B                     HLVDCON1        equ	3883	;# 
   388   000F2C                     FVRCON          equ	3884	;# 
   389   000F2D                     ZCDCON          equ	3885	;# 
   390   000F2E                     DAC1CON0        equ	3886	;# 
   391   000F2F                     DAC1CON1        equ	3887	;# 
   392   000F30                     CM2CON0         equ	3888	;# 
   393   000F31                     CM2CON1         equ	3889	;# 
   394   000F32                     CM2NCH          equ	3890	;# 
   395   000F33                     CM2PCH          equ	3891	;# 
   396   000F34                     CM1CON0         equ	3892	;# 
   397   000F35                     CM1CON1         equ	3893	;# 
   398   000F36                     CM1NCH          equ	3894	;# 
   399   000F37                     CM1PCH          equ	3895	;# 
   400   000F38                     CMOUT           equ	3896	;# 
   401   000F39                     CLKRCON         equ	3897	;# 
   402   000F3A                     CLKRCLK         equ	3898	;# 
   403   000F3B                     CWG1CLK         equ	3899	;# 
   404   000F3B                     CWG1CLKCON      equ	3899	;# 
   405   000F3C                     CWG1ISM         equ	3900	;# 
   406   000F3D                     CWG1DBR         equ	3901	;# 
   407   000F3E                     CWG1DBF         equ	3902	;# 
   408   000F3F                     CWG1CON0        equ	3903	;# 
   409   000F40                     CWG1CON1        equ	3904	;# 
   410   000F41                     CWG1AS0         equ	3905	;# 
   411   000F42                     CWG1AS1         equ	3906	;# 
   412   000F43                     CWG1STR         equ	3907	;# 
   413   000F44                     SCANLADR        equ	3908	;# 
   414   000F44                     SCANLADRL       equ	3908	;# 
   415   000F45                     SCANLADRH       equ	3909	;# 
   416   000F46                     SCANLADRU       equ	3910	;# 
   417   000F47                     SCANHADR        equ	3911	;# 
   418   000F47                     SCANHADRL       equ	3911	;# 
   419   000F48                     SCANHADRH       equ	3912	;# 
   420   000F49                     SCANHADRU       equ	3913	;# 
   421   000F4A                     SCANCON0        equ	3914	;# 
   422   000F4B                     SCANTRIG        equ	3915	;# 
   423   000F4C                     MDCON0          equ	3916	;# 
   424   000F4D                     MDCON1          equ	3917	;# 
   425   000F4E                     MDSRC           equ	3918	;# 
   426   000F4F                     MDCARL          equ	3919	;# 
   427   000F50                     MDCARH          equ	3920	;# 
   428   000F51                     ADACT           equ	3921	;# 
   429   000F52                     ADCLK           equ	3922	;# 
   430   000F53                     ADREF           equ	3923	;# 
   431   000F54                     ADCON1          equ	3924	;# 
   432   000F55                     ADCON2          equ	3925	;# 
   433   000F56                     ADCON3          equ	3926	;# 
   434   000F57                     ADACQ           equ	3927	;# 
   435   000F58                     ADCAP           equ	3928	;# 
   436   000F59                     ADPRE           equ	3929	;# 
   437   000F5A                     ADPCH           equ	3930	;# 
   438   000F5B                     ADCON0          equ	3931	;# 
   439   000F5C                     ADPREV          equ	3932	;# 
   440   000F5C                     ADPREVL         equ	3932	;# 
   441   000F5D                     ADPREVH         equ	3933	;# 
   442   000F5E                     ADRES           equ	3934	;# 
   443   000F5E                     ADRESL          equ	3934	;# 
   444   000F5F                     ADRESH          equ	3935	;# 
   445   000F60                     ADSTAT          equ	3936	;# 
   446   000F61                     ADRPT           equ	3937	;# 
   447   000F62                     ADCNT           equ	3938	;# 
   448   000F63                     ADSTPT          equ	3939	;# 
   449   000F63                     ADSTPTL         equ	3939	;# 
   450   000F64                     ADSTPTH         equ	3940	;# 
   451   000F65                     ADLTH           equ	3941	;# 
   452   000F65                     ADLTHL          equ	3941	;# 
   453   000F66                     ADLTHH          equ	3942	;# 
   454   000F67                     ADUTH           equ	3943	;# 
   455   000F67                     ADUTHL          equ	3943	;# 
   456   000F68                     ADUTHH          equ	3944	;# 
   457   000F69                     ADERR           equ	3945	;# 
   458   000F69                     ADERRL          equ	3945	;# 
   459   000F6A                     ADERRH          equ	3946	;# 
   460   000F6B                     ADACC           equ	3947	;# 
   461   000F6B                     ADACCL          equ	3947	;# 
   462   000F6C                     ADACCH          equ	3948	;# 
   463   000F6D                     ADFLTR          equ	3949	;# 
   464   000F6D                     ADFLTRL         equ	3949	;# 
   465   000F6E                     ADFLTRH         equ	3950	;# 
   466   000F6F                     CRCDATA         equ	3951	;# 
   467   000F6F                     CRCDATL         equ	3951	;# 
   468   000F70                     CRCDATH         equ	3952	;# 
   469   000F71                     CRCACC          equ	3953	;# 
   470   000F71                     CRCACCL         equ	3953	;# 
   471   000F72                     CRCACCH         equ	3954	;# 
   472   000F73                     CRCSHFT         equ	3955	;# 
   473   000F73                     CRCSHIFTL       equ	3955	;# 
   474   000F74                     CRCSHIFTH       equ	3956	;# 
   475   000F75                     CRCXOR          equ	3957	;# 
   476   000F75                     CRCXORL         equ	3957	;# 
   477   000F76                     CRCXORH         equ	3958	;# 
   478   000F77                     CRCCON0         equ	3959	;# 
   479   000F78                     CRCCON1         equ	3960	;# 
   480   000F79                     NVMADR          equ	3961	;# 
   481   000F79                     NVMADRL         equ	3961	;# 
   482   000F7A                     NVMADRH         equ	3962	;# 
   483   000F7B                     NVMADRU         equ	3963	;# 
   484   000F7C                     NVMDAT          equ	3964	;# 
   485   000F7C                     NVMDATL         equ	3964	;# 
   486   000F7D                     NVMDATH         equ	3965	;# 
   487   000F7F                     NVMCON0         equ	3967	;# 
   488   000F80                     NVMCON1         equ	3968	;# 
   489   000F81                     NVMCON2         equ	3969	;# 
   490   000F82                     LATA            equ	3970	;# 
   491   000F83                     LATB            equ	3971	;# 
   492   000F84                     LATC            equ	3972	;# 
   493   000F85                     LATD            equ	3973	;# 
   494   000F86                     LATE            equ	3974	;# 
   495   000F87                     TRISA           equ	3975	;# 
   496   000F87                     DDRA            equ	3975	;# 
   497   000F88                     TRISB           equ	3976	;# 
   498   000F88                     DDRB            equ	3976	;# 
   499   000F89                     TRISC           equ	3977	;# 
   500   000F89                     DDRC            equ	3977	;# 
   501   000F8A                     TRISD           equ	3978	;# 
   502   000F8A                     DDRD            equ	3978	;# 
   503   000F8B                     TRISE           equ	3979	;# 
   504   000F8B                     DDRE            equ	3979	;# 
   505   000F8C                     PORTA           equ	3980	;# 
   506   000F8D                     PORTB           equ	3981	;# 
   507   000F8E                     PORTC           equ	3982	;# 
   508   000F8F                     PORTD           equ	3983	;# 
   509   000F90                     PORTE           equ	3984	;# 
   510   000F91                     SSP1BUF         equ	3985	;# 
   511   000F92                     SSP1ADD         equ	3986	;# 
   512   000F93                     SSP1MSK         equ	3987	;# 
   513   000F94                     SSP1STAT        equ	3988	;# 
   514   000F95                     SSP1CON1        equ	3989	;# 
   515   000F96                     SSP1CON2        equ	3990	;# 
   516   000F97                     SSP1CON3        equ	3991	;# 
   517   000F98                     RC1REG          equ	3992	;# 
   518   000F98                     RCREG           equ	3992	;# 
   519   000F98                     RCREG1          equ	3992	;# 
   520   000F99                     TX1REG          equ	3993	;# 
   521   000F99                     TXREG1          equ	3993	;# 
   522   000F99                     TXREG           equ	3993	;# 
   523   000F9A                     SP1BRG          equ	3994	;# 
   524   000F9A                     SPBRG           equ	3994	;# 
   525   000F9A                     SP1BRGL         equ	3994	;# 
   526   000F9A                     SPBRG1          equ	3994	;# 
   527   000F9A                     SPBRGL          equ	3994	;# 
   528   000F9B                     SP1BRGH         equ	3995	;# 
   529   000F9B                     SPBRGH          equ	3995	;# 
   530   000F9B                     SPBRGH1         equ	3995	;# 
   531   000F9C                     RC1STA          equ	3996	;# 
   532   000F9C                     RCSTA1          equ	3996	;# 
   533   000F9C                     RCSTA           equ	3996	;# 
   534   000F9D                     TX1STA          equ	3997	;# 
   535   000F9D                     TXSTA1          equ	3997	;# 
   536   000F9D                     TXSTA           equ	3997	;# 
   537   000F9E                     BAUD1CON        equ	3998	;# 
   538   000F9E                     BAUDCON1        equ	3998	;# 
   539   000F9E                     BAUDCTL1        equ	3998	;# 
   540   000F9E                     BAUDCON         equ	3998	;# 
   541   000F9E                     BAUDCTL         equ	3998	;# 
   542   000F9F                     PWM4DC          equ	3999	;# 
   543   000F9F                     PWM4DCL         equ	3999	;# 
   544   000FA0                     PWM4DCH         equ	4000	;# 
   545   000FA1                     PWM4CON         equ	4001	;# 
   546   000FA2                     PWM3DC          equ	4002	;# 
   547   000FA2                     PWM3DCL         equ	4002	;# 
   548   000FA3                     PWM3DCH         equ	4003	;# 
   549   000FA4                     PWM3CON         equ	4004	;# 
   550   000FA5                     CCPR2           equ	4005	;# 
   551   000FA5                     CCPR2L          equ	4005	;# 
   552   000FA6                     CCPR2H          equ	4006	;# 
   553   000FA7                     CCP2CON         equ	4007	;# 
   554   000FA8                     CCP2CAP         equ	4008	;# 
   555   000FA9                     CCPR1           equ	4009	;# 
   556   000FA9                     CCPR1L          equ	4009	;# 
   557   000FAA                     CCPR1H          equ	4010	;# 
   558   000FAB                     CCP1CON         equ	4011	;# 
   559   000FAC                     CCP1CAP         equ	4012	;# 
   560   000FAD                     CCPTMRS         equ	4013	;# 
   561   000FAE                     T6TMR           equ	4014	;# 
   562   000FAE                     TMR6            equ	4014	;# 
   563   000FAF                     T6PR            equ	4015	;# 
   564   000FAF                     PR6             equ	4015	;# 
   565   000FB0                     T6CON           equ	4016	;# 
   566   000FB1                     T6HLT           equ	4017	;# 
   567   000FB2                     T6CLKCON        equ	4018	;# 
   568   000FB2                     T6CLK           equ	4018	;# 
   569   000FB3                     T6RST           equ	4019	;# 
   570   000FB4                     T4TMR           equ	4020	;# 
   571   000FB4                     TMR4            equ	4020	;# 
   572   000FB5                     T4PR            equ	4021	;# 
   573   000FB5                     PR4             equ	4021	;# 
   574   000FB6                     T4CON           equ	4022	;# 
   575   000FB7                     T4HLT           equ	4023	;# 
   576   000FB8                     T4CLKCON        equ	4024	;# 
   577   000FB8                     T4CLK           equ	4024	;# 
   578   000FB9                     T4RST           equ	4025	;# 
   579   000FBA                     T2TMR           equ	4026	;# 
   580   000FBA                     TMR2            equ	4026	;# 
   581   000FBB                     T2PR            equ	4027	;# 
   582   000FBB                     PR2             equ	4027	;# 
   583   000FBC                     T2CON           equ	4028	;# 
   584   000FBD                     T2HLT           equ	4029	;# 
   585   000FBE                     T2CLKCON        equ	4030	;# 
   586   000FBE                     T2CLK           equ	4030	;# 
   587   000FBF                     T2RST           equ	4031	;# 
   588   000FC0                     TMR5            equ	4032	;# 
   589   000FC0                     TMR5L           equ	4032	;# 
   590   000FC1                     TMR5H           equ	4033	;# 
   591   000FC2                     T5CON           equ	4034	;# 
   592   000FC2                     TMR5CON         equ	4034	;# 
   593   000FC3                     T5GCON          equ	4035	;# 
   594   000FC3                     TMR5GCON        equ	4035	;# 
   595   000FC4                     T5GATE          equ	4036	;# 
   596   000FC4                     TMR5GATE        equ	4036	;# 
   597   000FC5                     T5CLK           equ	4037	;# 
   598   000FC5                     TMR5CLK         equ	4037	;# 
   599   000FC5                     PR5             equ	4037	;# 
   600   000FC6                     TMR3            equ	4038	;# 
   601   000FC6                     TMR3L           equ	4038	;# 
   602   000FC7                     TMR3H           equ	4039	;# 
   603   000FC8                     T3CON           equ	4040	;# 
   604   000FC8                     TMR3CON         equ	4040	;# 
   605   000FC9                     T3GCON          equ	4041	;# 
   606   000FC9                     TMR3GCON        equ	4041	;# 
   607   000FCA                     T3GATE          equ	4042	;# 
   608   000FCA                     TMR3GATE        equ	4042	;# 
   609   000FCB                     T3CLK           equ	4043	;# 
   610   000FCB                     TMR3CLK         equ	4043	;# 
   611   000FCB                     PR3             equ	4043	;# 
   612   000FCC                     TMR1            equ	4044	;# 
   613   000FCC                     TMR1L           equ	4044	;# 
   614   000FCD                     TMR1H           equ	4045	;# 
   615   000FCE                     T1CON           equ	4046	;# 
   616   000FCE                     TMR1CON         equ	4046	;# 
   617   000FCF                     T1GCON          equ	4047	;# 
   618   000FCF                     TMR1GCON        equ	4047	;# 
   619   000FD0                     T1GATE          equ	4048	;# 
   620   000FD0                     TMR1GATE        equ	4048	;# 
   621   000FD1                     T1CLK           equ	4049	;# 
   622   000FD1                     TMR1CLK         equ	4049	;# 
   623   000FD1                     PR1             equ	4049	;# 
   624   000FD2                     TMR0L           equ	4050	;# 
   625   000FD2                     TMR0            equ	4050	;# 
   626   000FD3                     TMR0H           equ	4051	;# 
   627   000FD3                     PR0             equ	4051	;# 
   628   000FD4                     T0CON0          equ	4052	;# 
   629   000FD5                     T0CON1          equ	4053	;# 
   630   000FD6                     PCON1           equ	4054	;# 
   631   000FD7                     PCON0           equ	4055	;# 
   632   000FD8                     STATUS          equ	4056	;# 
   633   000FD9                     FSR2            equ	4057	;# 
   634   000FD9                     FSR2L           equ	4057	;# 
   635   000FDA                     FSR2H           equ	4058	;# 
   636   000FDB                     PLUSW2          equ	4059	;# 
   637   000FDC                     PREINC2         equ	4060	;# 
   638   000FDD                     POSTDEC2        equ	4061	;# 
   639   000FDE                     POSTINC2        equ	4062	;# 
   640   000FDF                     INDF2           equ	4063	;# 
   641   000FE0                     BSR             equ	4064	;# 
   642   000FE1                     FSR1            equ	4065	;# 
   643   000FE1                     FSR1L           equ	4065	;# 
   644   000FE2                     FSR1H           equ	4066	;# 
   645   000FE3                     PLUSW1          equ	4067	;# 
   646   000FE4                     PREINC1         equ	4068	;# 
   647   000FE5                     POSTDEC1        equ	4069	;# 
   648   000FE6                     POSTINC1        equ	4070	;# 
   649   000FE7                     INDF1           equ	4071	;# 
   650   000FE8                     WREG            equ	4072	;# 
   651   000FE9                     FSR0            equ	4073	;# 
   652   000FE9                     FSR0L           equ	4073	;# 
   653   000FEA                     FSR0H           equ	4074	;# 
   654   000FEB                     PLUSW0          equ	4075	;# 
   655   000FEC                     PREINC0         equ	4076	;# 
   656   000FED                     POSTDEC0        equ	4077	;# 
   657   000FEE                     POSTINC0        equ	4078	;# 
   658   000FEF                     INDF0           equ	4079	;# 
   659   000FF2                     INTCON          equ	4082	;# 
   660   000FF3                     PROD            equ	4083	;# 
   661   000FF3                     PRODL           equ	4083	;# 
   662   000FF4                     PRODH           equ	4084	;# 
   663   000FF5                     TABLAT          equ	4085	;# 
   664   000FF6                     TBLPTR          equ	4086	;# 
   665   000FF6                     TBLPTRL         equ	4086	;# 
   666   000FF7                     TBLPTRH         equ	4087	;# 
   667   000FF8                     TBLPTRU         equ	4088	;# 
   668   000FF9                     PCLAT           equ	4089	;# 
   669   000FF9                     PCL             equ	4089	;# 
   670   000FFA                     PCLATH          equ	4090	;# 
   671   000FFB                     PCLATU          equ	4091	;# 
   672   000FFC                     STKPTR          equ	4092	;# 
   673   000FFD                     TOS             equ	4093	;# 
   674   000FFD                     TOSL            equ	4093	;# 
   675   000FFE                     TOSH            equ	4094	;# 
   676   000FFF                     TOSU            equ	4095	;# 
   677   000E1F                     CLCIN0PPS       equ	3615	;# 
   678   000E20                     CLCIN1PPS       equ	3616	;# 
   679   000E21                     CLCIN2PPS       equ	3617	;# 
   680   000E22                     CLCIN3PPS       equ	3618	;# 
   681   000E23                     CLCIN4PPS       equ	3619	;# 
   682   000E24                     CLCIN5PPS       equ	3620	;# 
   683   000E25                     CLCIN6PPS       equ	3621	;# 
   684   000E26                     CLCIN7PPS       equ	3622	;# 
   685   000E27                     CLC1CON         equ	3623	;# 
   686   000E28                     CLC1POL         equ	3624	;# 
   687   000E29                     CLC1SEL0        equ	3625	;# 
   688   000E2A                     CLC1SEL1        equ	3626	;# 
   689   000E2B                     CLC1SEL2        equ	3627	;# 
   690   000E2C                     CLC1SEL3        equ	3628	;# 
   691   000E2D                     CLC1GLS0        equ	3629	;# 
   692   000E2E                     CLC1GLS1        equ	3630	;# 
   693   000E2F                     CLC1GLS2        equ	3631	;# 
   694   000E30                     CLC1GLS3        equ	3632	;# 
   695   000E31                     CLC2CON         equ	3633	;# 
   696   000E32                     CLC2POL         equ	3634	;# 
   697   000E33                     CLC2SEL0        equ	3635	;# 
   698   000E34                     CLC2SEL1        equ	3636	;# 
   699   000E35                     CLC2SEL2        equ	3637	;# 
   700   000E36                     CLC2SEL3        equ	3638	;# 
   701   000E37                     CLC2GLS0        equ	3639	;# 
   702   000E38                     CLC2GLS1        equ	3640	;# 
   703   000E39                     CLC2GLS2        equ	3641	;# 
   704   000E3A                     CLC2GLS3        equ	3642	;# 
   705   000E3B                     CLC3CON         equ	3643	;# 
   706   000E3C                     CLC3POL         equ	3644	;# 
   707   000E3D                     CLC3SEL0        equ	3645	;# 
   708   000E3E                     CLC3SEL1        equ	3646	;# 
   709   000E3F                     CLC3SEL2        equ	3647	;# 
   710   000E40                     CLC3SEL3        equ	3648	;# 
   711   000E41                     CLC3GLS0        equ	3649	;# 
   712   000E42                     CLC3GLS1        equ	3650	;# 
   713   000E43                     CLC3GLS2        equ	3651	;# 
   714   000E44                     CLC3GLS3        equ	3652	;# 
   715   000E45                     CLC4CON         equ	3653	;# 
   716   000E46                     CLC4POL         equ	3654	;# 
   717   000E47                     CLC4SEL0        equ	3655	;# 
   718   000E48                     CLC4SEL1        equ	3656	;# 
   719   000E49                     CLC4SEL2        equ	3657	;# 
   720   000E4A                     CLC4SEL3        equ	3658	;# 
   721   000E4B                     CLC4GLS0        equ	3659	;# 
   722   000E4C                     CLC4GLS1        equ	3660	;# 
   723   000E4D                     CLC4GLS2        equ	3661	;# 
   724   000E4E                     CLC4GLS3        equ	3662	;# 
   725   000E4F                     CLC5CON         equ	3663	;# 
   726   000E50                     CLC5POL         equ	3664	;# 
   727   000E51                     CLC5SEL0        equ	3665	;# 
   728   000E52                     CLC5SEL1        equ	3666	;# 
   729   000E53                     CLC5SEL2        equ	3667	;# 
   730   000E54                     CLC5SEL3        equ	3668	;# 
   731   000E55                     CLC5GLS0        equ	3669	;# 
   732   000E56                     CLC5GLS1        equ	3670	;# 
   733   000E57                     CLC5GLS2        equ	3671	;# 
   734   000E58                     CLC5GLS3        equ	3672	;# 
   735   000E59                     CLC6CON         equ	3673	;# 
   736   000E5A                     CLC6POL         equ	3674	;# 
   737   000E5B                     CLC6SEL0        equ	3675	;# 
   738   000E5C                     CLC6SEL1        equ	3676	;# 
   739   000E5D                     CLC6SEL2        equ	3677	;# 
   740   000E5E                     CLC6SEL3        equ	3678	;# 
   741   000E5F                     CLC6GLS0        equ	3679	;# 
   742   000E60                     CLC6GLS1        equ	3680	;# 
   743   000E61                     CLC6GLS2        equ	3681	;# 
   744   000E62                     CLC6GLS3        equ	3682	;# 
   745   000E63                     CLC7CON         equ	3683	;# 
   746   000E64                     CLC7POL         equ	3684	;# 
   747   000E65                     CLC7SEL0        equ	3685	;# 
   748   000E66                     CLC7SEL1        equ	3686	;# 
   749   000E67                     CLC7SEL2        equ	3687	;# 
   750   000E68                     CLC7SEL3        equ	3688	;# 
   751   000E69                     CLC7GLS0        equ	3689	;# 
   752   000E6A                     CLC7GLS1        equ	3690	;# 
   753   000E6B                     CLC7GLS2        equ	3691	;# 
   754   000E6C                     CLC7GLS3        equ	3692	;# 
   755   000E6D                     CLC8CON         equ	3693	;# 
   756   000E6E                     CLC8POL         equ	3694	;# 
   757   000E6F                     CLC8SEL0        equ	3695	;# 
   758   000E70                     CLC8SEL1        equ	3696	;# 
   759   000E71                     CLC8SEL2        equ	3697	;# 
   760   000E72                     CLC8SEL3        equ	3698	;# 
   761   000E73                     CLC8GLS0        equ	3699	;# 
   762   000E74                     CLC8GLS1        equ	3700	;# 
   763   000E75                     CLC8GLS2        equ	3701	;# 
   764   000E76                     CLC8GLS3        equ	3702	;# 
   765   000E77                     CLCDATA         equ	3703	;# 
   766   000E88                     RX2PPS          equ	3720	;# 
   767   000E88                     RXDT2PPS        equ	3720	;# 
   768   000E89                     CK2PPS          equ	3721	;# 
   769   000E89                     TXCK2PPS        equ	3721	;# 
   770   000E89                     TX2PPS          equ	3721	;# 
   771   000E8A                     SSP2CLKPPS      equ	3722	;# 
   772   000E8B                     SSP2DATPPS      equ	3723	;# 
   773   000E8C                     SSP2SSPPS       equ	3724	;# 
   774   000E8D                     SSP2BUF         equ	3725	;# 
   775   000E8E                     SSP2ADD         equ	3726	;# 
   776   000E8F                     SSP2MSK         equ	3727	;# 
   777   000E90                     SSP2STAT        equ	3728	;# 
   778   000E91                     SSP2CON1        equ	3729	;# 
   779   000E92                     SSP2CON2        equ	3730	;# 
   780   000E93                     SSP2CON3        equ	3731	;# 
   781   000E94                     RC2REG          equ	3732	;# 
   782   000E94                     RCREG2          equ	3732	;# 
   783   000E95                     TX2REG          equ	3733	;# 
   784   000E95                     TXREG2          equ	3733	;# 
   785   000E96                     SP2BRG          equ	3734	;# 
   786   000E96                     SP2BRGL         equ	3734	;# 
   787   000E96                     SPBRG2          equ	3734	;# 
   788   000E97                     SP2BRGH         equ	3735	;# 
   789   000E97                     SPBRGH2         equ	3735	;# 
   790   000E98                     RC2STA          equ	3736	;# 
   791   000E98                     RCSTA2          equ	3736	;# 
   792   000E99                     TX2STA          equ	3737	;# 
   793   000E99                     TXSTA2          equ	3737	;# 
   794   000E9A                     BAUD2CON        equ	3738	;# 
   795   000E9A                     BAUDCON2        equ	3738	;# 
   796   000E9A                     BAUDCTL2        equ	3738	;# 
   797   000E9B                     PPSLOCK         equ	3739	;# 
   798   000E9C                     INT0PPS         equ	3740	;# 
   799   000E9D                     INT1PPS         equ	3741	;# 
   800   000E9E                     INT2PPS         equ	3742	;# 
   801   000E9F                     T0CKIPPS        equ	3743	;# 
   802   000EA0                     T1CKIPPS        equ	3744	;# 
   803   000EA1                     T1GPPS          equ	3745	;# 
   804   000EA2                     T3CKIPPS        equ	3746	;# 
   805   000EA3                     T3GPPS          equ	3747	;# 
   806   000EA4                     T5CKIPPS        equ	3748	;# 
   807   000EA5                     T5GPPS          equ	3749	;# 
   808   000EA6                     T2INPPS         equ	3750	;# 
   809   000EA7                     T4INPPS         equ	3751	;# 
   810   000EA8                     T6INPPS         equ	3752	;# 
   811   000EA9                     ADACTPPS        equ	3753	;# 
   812   000EAA                     CCP1PPS         equ	3754	;# 
   813   000EAB                     CCP2PPS         equ	3755	;# 
   814   000EAC                     CWG1PPS         equ	3756	;# 
   815   000EAC                     CWGPPS          equ	3756	;# 
   816   000EAC                     CWG1INPPS       equ	3756	;# 
   817   000EAC                     CWGINPPS        equ	3756	;# 
   818   000EAD                     MDCARLPPS       equ	3757	;# 
   819   000EAE                     MDCARHPPS       equ	3758	;# 
   820   000EAF                     MDSRCPPS        equ	3759	;# 
   821   000EB0                     RX1PPS          equ	3760	;# 
   822   000EB0                     RXPPS           equ	3760	;# 
   823   000EB0                     RXDT1PPS        equ	3760	;# 
   824   000EB1                     CK1PPS          equ	3761	;# 
   825   000EB1                     TXPPS           equ	3761	;# 
   826   000EB1                     CKPPS           equ	3761	;# 
   827   000EB1                     TX1PPS          equ	3761	;# 
   828   000EB1                     TXCK1PPS        equ	3761	;# 
   829   000EB2                     SSP1CLKPPS      equ	3762	;# 
   830   000EB2                     SSPCLKPPS       equ	3762	;# 
   831   000EB3                     SSP1DATPPS      equ	3763	;# 
   832   000EB3                     SSPDATPPS       equ	3763	;# 
   833   000EB4                     SSP1SSPPS       equ	3764	;# 
   834   000EB4                     SSPSSPPS        equ	3764	;# 
   835   000EB5                     IPR0            equ	3765	;# 
   836   000EB6                     IPR1            equ	3766	;# 
   837   000EB7                     IPR2            equ	3767	;# 
   838   000EB8                     IPR3            equ	3768	;# 
   839   000EB9                     IPR4            equ	3769	;# 
   840   000EBA                     IPR5            equ	3770	;# 
   841   000EBB                     IPR6            equ	3771	;# 
   842   000EBC                     IPR7            equ	3772	;# 
   843   000EBD                     PIE0            equ	3773	;# 
   844   000EBE                     PIE1            equ	3774	;# 
   845   000EBF                     PIE2            equ	3775	;# 
   846   000EC0                     PIE3            equ	3776	;# 
   847   000EC1                     PIE4            equ	3777	;# 
   848   000EC2                     PIE5            equ	3778	;# 
   849   000EC3                     PIE6            equ	3779	;# 
   850   000EC4                     PIE7            equ	3780	;# 
   851   000EC5                     PIR0            equ	3781	;# 
   852   000EC6                     PIR1            equ	3782	;# 
   853   000EC7                     PIR2            equ	3783	;# 
   854   000EC8                     PIR3            equ	3784	;# 
   855   000EC9                     PIR4            equ	3785	;# 
   856   000ECA                     PIR5            equ	3786	;# 
   857   000ECB                     PIR6            equ	3787	;# 
   858   000ECC                     PIR7            equ	3788	;# 
   859   000ECD                     WDTCON0         equ	3789	;# 
   860   000ECE                     WDTCON1         equ	3790	;# 
   861   000ECF                     WDTPSL          equ	3791	;# 
   862   000ED0                     WDTPSH          equ	3792	;# 
   863   000ED1                     WDTTMR          equ	3793	;# 
   864   000ED2                     CPUDOZE         equ	3794	;# 
   865   000ED3                     OSCCON1         equ	3795	;# 
   866   000ED4                     OSCCON2         equ	3796	;# 
   867   000ED5                     OSCCON3         equ	3797	;# 
   868   000ED6                     OSCSTAT         equ	3798	;# 
   869   000ED6                     OSCSTAT1        equ	3798	;# 
   870   000ED7                     OSCEN           equ	3799	;# 
   871   000ED8                     OSCTUNE         equ	3800	;# 
   872   000ED9                     OSCFRQ          equ	3801	;# 
   873   000ED9                     OSCFREQ         equ	3801	;# 
   874   000EDA                     VREGCON         equ	3802	;# 
   875   000EDB                     BORCON          equ	3803	;# 
   876   000EDC                     PMD0            equ	3804	;# 
   877   000EDD                     PMD1            equ	3805	;# 
   878   000EDE                     PMD2            equ	3806	;# 
   879   000EDF                     PMD3            equ	3807	;# 
   880   000EE0                     PMD4            equ	3808	;# 
   881   000EE1                     PMD5            equ	3809	;# 
   882   000EE2                     RA0PPS          equ	3810	;# 
   883   000EE3                     RA1PPS          equ	3811	;# 
   884   000EE4                     RA2PPS          equ	3812	;# 
   885   000EE5                     RA3PPS          equ	3813	;# 
   886   000EE6                     RA4PPS          equ	3814	;# 
   887   000EE7                     RA5PPS          equ	3815	;# 
   888   000EE8                     RA6PPS          equ	3816	;# 
   889   000EE9                     RA7PPS          equ	3817	;# 
   890   000EEA                     RB0PPS          equ	3818	;# 
   891   000EEB                     RB1PPS          equ	3819	;# 
   892   000EEC                     RB2PPS          equ	3820	;# 
   893   000EED                     RB3PPS          equ	3821	;# 
   894   000EEE                     RB4PPS          equ	3822	;# 
   895   000EEF                     RB5PPS          equ	3823	;# 
   896   000EF0                     RB6PPS          equ	3824	;# 
   897   000EF1                     RB7PPS          equ	3825	;# 
   898   000EF2                     RC0PPS          equ	3826	;# 
   899   000EF3                     RC1PPS          equ	3827	;# 
   900   000EF4                     RC2PPS          equ	3828	;# 
   901   000EF5                     RC3PPS          equ	3829	;# 
   902   000EF6                     RC4PPS          equ	3830	;# 
   903   000EF7                     RC5PPS          equ	3831	;# 
   904   000EF8                     RC6PPS          equ	3832	;# 
   905   000EF9                     RC7PPS          equ	3833	;# 
   906   000EFA                     RD0PPS          equ	3834	;# 
   907   000EFB                     RD1PPS          equ	3835	;# 
   908   000EFC                     RD2PPS          equ	3836	;# 
   909   000EFD                     RD3PPS          equ	3837	;# 
   910   000EFE                     RD4PPS          equ	3838	;# 
   911   000EFF                     RD5PPS          equ	3839	;# 
   912   000F00                     RD6PPS          equ	3840	;# 
   913   000F01                     RD7PPS          equ	3841	;# 
   914   000F02                     RE0PPS          equ	3842	;# 
   915   000F03                     RE1PPS          equ	3843	;# 
   916   000F04                     RE2PPS          equ	3844	;# 
   917   000F05                     IOCAF           equ	3845	;# 
   918   000F06                     IOCAN           equ	3846	;# 
   919   000F07                     IOCAP           equ	3847	;# 
   920   000F08                     INLVLA          equ	3848	;# 
   921   000F09                     SLRCONA         equ	3849	;# 
   922   000F0A                     ODCONA          equ	3850	;# 
   923   000F0B                     WPUA            equ	3851	;# 
   924   000F0C                     ANSELA          equ	3852	;# 
   925   000F0D                     IOCBF           equ	3853	;# 
   926   000F0E                     IOCBN           equ	3854	;# 
   927   000F0F                     IOCBP           equ	3855	;# 
   928   000F10                     INLVLB          equ	3856	;# 
   929   000F11                     SLRCONB         equ	3857	;# 
   930   000F12                     ODCONB          equ	3858	;# 
   931   000F13                     WPUB            equ	3859	;# 
   932   000F14                     ANSELB          equ	3860	;# 
   933   000F15                     IOCCF           equ	3861	;# 
   934   000F16                     IOCCN           equ	3862	;# 
   935   000F17                     IOCCP           equ	3863	;# 
   936   000F18                     INLVLC          equ	3864	;# 
   937   000F19                     SLRCONC         equ	3865	;# 
   938   000F1A                     ODCONC          equ	3866	;# 
   939   000F1B                     WPUC            equ	3867	;# 
   940   000F1C                     ANSELC          equ	3868	;# 
   941   000F1D                     INLVLD          equ	3869	;# 
   942   000F1E                     SLRCOND         equ	3870	;# 
   943   000F1F                     ODCOND          equ	3871	;# 
   944   000F20                     WPUD            equ	3872	;# 
   945   000F21                     ANSELD          equ	3873	;# 
   946   000F22                     IOCEF           equ	3874	;# 
   947   000F23                     IOCEN           equ	3875	;# 
   948   000F24                     IOCEP           equ	3876	;# 
   949   000F25                     INLVLE          equ	3877	;# 
   950   000F26                     SLRCONE         equ	3878	;# 
   951   000F27                     ODCONE          equ	3879	;# 
   952   000F28                     WPUE            equ	3880	;# 
   953   000F29                     ANSELE          equ	3881	;# 
   954   000F2A                     HLVDCON0        equ	3882	;# 
   955   000F2B                     HLVDCON1        equ	3883	;# 
   956   000F2C                     FVRCON          equ	3884	;# 
   957   000F2D                     ZCDCON          equ	3885	;# 
   958   000F2E                     DAC1CON0        equ	3886	;# 
   959   000F2F                     DAC1CON1        equ	3887	;# 
   960   000F30                     CM2CON0         equ	3888	;# 
   961   000F31                     CM2CON1         equ	3889	;# 
   962   000F32                     CM2NCH          equ	3890	;# 
   963   000F33                     CM2PCH          equ	3891	;# 
   964   000F34                     CM1CON0         equ	3892	;# 
   965   000F35                     CM1CON1         equ	3893	;# 
   966   000F36                     CM1NCH          equ	3894	;# 
   967   000F37                     CM1PCH          equ	3895	;# 
   968   000F38                     CMOUT           equ	3896	;# 
   969   000F39                     CLKRCON         equ	3897	;# 
   970   000F3A                     CLKRCLK         equ	3898	;# 
   971   000F3B                     CWG1CLK         equ	3899	;# 
   972   000F3B                     CWG1CLKCON      equ	3899	;# 
   973   000F3C                     CWG1ISM         equ	3900	;# 
   974   000F3D                     CWG1DBR         equ	3901	;# 
   975   000F3E                     CWG1DBF         equ	3902	;# 
   976   000F3F                     CWG1CON0        equ	3903	;# 
   977   000F40                     CWG1CON1        equ	3904	;# 
   978   000F41                     CWG1AS0         equ	3905	;# 
   979   000F42                     CWG1AS1         equ	3906	;# 
   980   000F43                     CWG1STR         equ	3907	;# 
   981   000F44                     SCANLADR        equ	3908	;# 
   982   000F44                     SCANLADRL       equ	3908	;# 
   983   000F45                     SCANLADRH       equ	3909	;# 
   984   000F46                     SCANLADRU       equ	3910	;# 
   985   000F47                     SCANHADR        equ	3911	;# 
   986   000F47                     SCANHADRL       equ	3911	;# 
   987   000F48                     SCANHADRH       equ	3912	;# 
   988   000F49                     SCANHADRU       equ	3913	;# 
   989   000F4A                     SCANCON0        equ	3914	;# 
   990   000F4B                     SCANTRIG        equ	3915	;# 
   991   000F4C                     MDCON0          equ	3916	;# 
   992   000F4D                     MDCON1          equ	3917	;# 
   993   000F4E                     MDSRC           equ	3918	;# 
   994   000F4F                     MDCARL          equ	3919	;# 
   995   000F50                     MDCARH          equ	3920	;# 
   996   000F51                     ADACT           equ	3921	;# 
   997   000F52                     ADCLK           equ	3922	;# 
   998   000F53                     ADREF           equ	3923	;# 
   999   000F54                     ADCON1          equ	3924	;# 
  1000   000F55                     ADCON2          equ	3925	;# 
  1001   000F56                     ADCON3          equ	3926	;# 
  1002   000F57                     ADACQ           equ	3927	;# 
  1003   000F58                     ADCAP           equ	3928	;# 
  1004   000F59                     ADPRE           equ	3929	;# 
  1005   000F5A                     ADPCH           equ	3930	;# 
  1006   000F5B                     ADCON0          equ	3931	;# 
  1007   000F5C                     ADPREV          equ	3932	;# 
  1008   000F5C                     ADPREVL         equ	3932	;# 
  1009   000F5D                     ADPREVH         equ	3933	;# 
  1010   000F5E                     ADRES           equ	3934	;# 
  1011   000F5E                     ADRESL          equ	3934	;# 
  1012   000F5F                     ADRESH          equ	3935	;# 
  1013   000F60                     ADSTAT          equ	3936	;# 
  1014   000F61                     ADRPT           equ	3937	;# 
  1015   000F62                     ADCNT           equ	3938	;# 
  1016   000F63                     ADSTPT          equ	3939	;# 
  1017   000F63                     ADSTPTL         equ	3939	;# 
  1018   000F64                     ADSTPTH         equ	3940	;# 
  1019   000F65                     ADLTH           equ	3941	;# 
  1020   000F65                     ADLTHL          equ	3941	;# 
  1021   000F66                     ADLTHH          equ	3942	;# 
  1022   000F67                     ADUTH           equ	3943	;# 
  1023   000F67                     ADUTHL          equ	3943	;# 
  1024   000F68                     ADUTHH          equ	3944	;# 
  1025   000F69                     ADERR           equ	3945	;# 
  1026   000F69                     ADERRL          equ	3945	;# 
  1027   000F6A                     ADERRH          equ	3946	;# 
  1028   000F6B                     ADACC           equ	3947	;# 
  1029   000F6B                     ADACCL          equ	3947	;# 
  1030   000F6C                     ADACCH          equ	3948	;# 
  1031   000F6D                     ADFLTR          equ	3949	;# 
  1032   000F6D                     ADFLTRL         equ	3949	;# 
  1033   000F6E                     ADFLTRH         equ	3950	;# 
  1034   000F6F                     CRCDATA         equ	3951	;# 
  1035   000F6F                     CRCDATL         equ	3951	;# 
  1036   000F70                     CRCDATH         equ	3952	;# 
  1037   000F71                     CRCACC          equ	3953	;# 
  1038   000F71                     CRCACCL         equ	3953	;# 
  1039   000F72                     CRCACCH         equ	3954	;# 
  1040   000F73                     CRCSHFT         equ	3955	;# 
  1041   000F73                     CRCSHIFTL       equ	3955	;# 
  1042   000F74                     CRCSHIFTH       equ	3956	;# 
  1043   000F75                     CRCXOR          equ	3957	;# 
  1044   000F75                     CRCXORL         equ	3957	;# 
  1045   000F76                     CRCXORH         equ	3958	;# 
  1046   000F77                     CRCCON0         equ	3959	;# 
  1047   000F78                     CRCCON1         equ	3960	;# 
  1048   000F79                     NVMADR          equ	3961	;# 
  1049   000F79                     NVMADRL         equ	3961	;# 
  1050   000F7A                     NVMADRH         equ	3962	;# 
  1051   000F7B                     NVMADRU         equ	3963	;# 
  1052   000F7C                     NVMDAT          equ	3964	;# 
  1053   000F7C                     NVMDATL         equ	3964	;# 
  1054   000F7D                     NVMDATH         equ	3965	;# 
  1055   000F7F                     NVMCON0         equ	3967	;# 
  1056   000F80                     NVMCON1         equ	3968	;# 
  1057   000F81                     NVMCON2         equ	3969	;# 
  1058   000F82                     LATA            equ	3970	;# 
  1059   000F83                     LATB            equ	3971	;# 
  1060   000F84                     LATC            equ	3972	;# 
  1061   000F85                     LATD            equ	3973	;# 
  1062   000F86                     LATE            equ	3974	;# 
  1063   000F87                     TRISA           equ	3975	;# 
  1064   000F87                     DDRA            equ	3975	;# 
  1065   000F88                     TRISB           equ	3976	;# 
  1066   000F88                     DDRB            equ	3976	;# 
  1067   000F89                     TRISC           equ	3977	;# 
  1068   000F89                     DDRC            equ	3977	;# 
  1069   000F8A                     TRISD           equ	3978	;# 
  1070   000F8A                     DDRD            equ	3978	;# 
  1071   000F8B                     TRISE           equ	3979	;# 
  1072   000F8B                     DDRE            equ	3979	;# 
  1073   000F8C                     PORTA           equ	3980	;# 
  1074   000F8D                     PORTB           equ	3981	;# 
  1075   000F8E                     PORTC           equ	3982	;# 
  1076   000F8F                     PORTD           equ	3983	;# 
  1077   000F90                     PORTE           equ	3984	;# 
  1078   000F91                     SSP1BUF         equ	3985	;# 
  1079   000F92                     SSP1ADD         equ	3986	;# 
  1080   000F93                     SSP1MSK         equ	3987	;# 
  1081   000F94                     SSP1STAT        equ	3988	;# 
  1082   000F95                     SSP1CON1        equ	3989	;# 
  1083   000F96                     SSP1CON2        equ	3990	;# 
  1084   000F97                     SSP1CON3        equ	3991	;# 
  1085   000F98                     RC1REG          equ	3992	;# 
  1086   000F98                     RCREG           equ	3992	;# 
  1087   000F98                     RCREG1          equ	3992	;# 
  1088   000F99                     TX1REG          equ	3993	;# 
  1089   000F99                     TXREG1          equ	3993	;# 
  1090   000F99                     TXREG           equ	3993	;# 
  1091   000F9A                     SP1BRG          equ	3994	;# 
  1092   000F9A                     SPBRG           equ	3994	;# 
  1093   000F9A                     SP1BRGL         equ	3994	;# 
  1094   000F9A                     SPBRG1          equ	3994	;# 
  1095   000F9A                     SPBRGL          equ	3994	;# 
  1096   000F9B                     SP1BRGH         equ	3995	;# 
  1097   000F9B                     SPBRGH          equ	3995	;# 
  1098   000F9B                     SPBRGH1         equ	3995	;# 
  1099   000F9C                     RC1STA          equ	3996	;# 
  1100   000F9C                     RCSTA1          equ	3996	;# 
  1101   000F9C                     RCSTA           equ	3996	;# 
  1102   000F9D                     TX1STA          equ	3997	;# 
  1103   000F9D                     TXSTA1          equ	3997	;# 
  1104   000F9D                     TXSTA           equ	3997	;# 
  1105   000F9E                     BAUD1CON        equ	3998	;# 
  1106   000F9E                     BAUDCON1        equ	3998	;# 
  1107   000F9E                     BAUDCTL1        equ	3998	;# 
  1108   000F9E                     BAUDCON         equ	3998	;# 
  1109   000F9E                     BAUDCTL         equ	3998	;# 
  1110   000F9F                     PWM4DC          equ	3999	;# 
  1111   000F9F                     PWM4DCL         equ	3999	;# 
  1112   000FA0                     PWM4DCH         equ	4000	;# 
  1113   000FA1                     PWM4CON         equ	4001	;# 
  1114   000FA2                     PWM3DC          equ	4002	;# 
  1115   000FA2                     PWM3DCL         equ	4002	;# 
  1116   000FA3                     PWM3DCH         equ	4003	;# 
  1117   000FA4                     PWM3CON         equ	4004	;# 
  1118   000FA5                     CCPR2           equ	4005	;# 
  1119   000FA5                     CCPR2L          equ	4005	;# 
  1120   000FA6                     CCPR2H          equ	4006	;# 
  1121   000FA7                     CCP2CON         equ	4007	;# 
  1122   000FA8                     CCP2CAP         equ	4008	;# 
  1123   000FA9                     CCPR1           equ	4009	;# 
  1124   000FA9                     CCPR1L          equ	4009	;# 
  1125   000FAA                     CCPR1H          equ	4010	;# 
  1126   000FAB                     CCP1CON         equ	4011	;# 
  1127   000FAC                     CCP1CAP         equ	4012	;# 
  1128   000FAD                     CCPTMRS         equ	4013	;# 
  1129   000FAE                     T6TMR           equ	4014	;# 
  1130   000FAE                     TMR6            equ	4014	;# 
  1131   000FAF                     T6PR            equ	4015	;# 
  1132   000FAF                     PR6             equ	4015	;# 
  1133   000FB0                     T6CON           equ	4016	;# 
  1134   000FB1                     T6HLT           equ	4017	;# 
  1135   000FB2                     T6CLKCON        equ	4018	;# 
  1136   000FB2                     T6CLK           equ	4018	;# 
  1137   000FB3                     T6RST           equ	4019	;# 
  1138   000FB4                     T4TMR           equ	4020	;# 
  1139   000FB4                     TMR4            equ	4020	;# 
  1140   000FB5                     T4PR            equ	4021	;# 
  1141   000FB5                     PR4             equ	4021	;# 
  1142   000FB6                     T4CON           equ	4022	;# 
  1143   000FB7                     T4HLT           equ	4023	;# 
  1144   000FB8                     T4CLKCON        equ	4024	;# 
  1145   000FB8                     T4CLK           equ	4024	;# 
  1146   000FB9                     T4RST           equ	4025	;# 
  1147   000FBA                     T2TMR           equ	4026	;# 
  1148   000FBA                     TMR2            equ	4026	;# 
  1149   000FBB                     T2PR            equ	4027	;# 
  1150   000FBB                     PR2             equ	4027	;# 
  1151   000FBC                     T2CON           equ	4028	;# 
  1152   000FBD                     T2HLT           equ	4029	;# 
  1153   000FBE                     T2CLKCON        equ	4030	;# 
  1154   000FBE                     T2CLK           equ	4030	;# 
  1155   000FBF                     T2RST           equ	4031	;# 
  1156   000FC0                     TMR5            equ	4032	;# 
  1157   000FC0                     TMR5L           equ	4032	;# 
  1158   000FC1                     TMR5H           equ	4033	;# 
  1159   000FC2                     T5CON           equ	4034	;# 
  1160   000FC2                     TMR5CON         equ	4034	;# 
  1161   000FC3                     T5GCON          equ	4035	;# 
  1162   000FC3                     TMR5GCON        equ	4035	;# 
  1163   000FC4                     T5GATE          equ	4036	;# 
  1164   000FC4                     TMR5GATE        equ	4036	;# 
  1165   000FC5                     T5CLK           equ	4037	;# 
  1166   000FC5                     TMR5CLK         equ	4037	;# 
  1167   000FC5                     PR5             equ	4037	;# 
  1168   000FC6                     TMR3            equ	4038	;# 
  1169   000FC6                     TMR3L           equ	4038	;# 
  1170   000FC7                     TMR3H           equ	4039	;# 
  1171   000FC8                     T3CON           equ	4040	;# 
  1172   000FC8                     TMR3CON         equ	4040	;# 
  1173   000FC9                     T3GCON          equ	4041	;# 
  1174   000FC9                     TMR3GCON        equ	4041	;# 
  1175   000FCA                     T3GATE          equ	4042	;# 
  1176   000FCA                     TMR3GATE        equ	4042	;# 
  1177   000FCB                     T3CLK           equ	4043	;# 
  1178   000FCB                     TMR3CLK         equ	4043	;# 
  1179   000FCB                     PR3             equ	4043	;# 
  1180   000FCC                     TMR1            equ	4044	;# 
  1181   000FCC                     TMR1L           equ	4044	;# 
  1182   000FCD                     TMR1H           equ	4045	;# 
  1183   000FCE                     T1CON           equ	4046	;# 
  1184   000FCE                     TMR1CON         equ	4046	;# 
  1185   000FCF                     T1GCON          equ	4047	;# 
  1186   000FCF                     TMR1GCON        equ	4047	;# 
  1187   000FD0                     T1GATE          equ	4048	;# 
  1188   000FD0                     TMR1GATE        equ	4048	;# 
  1189   000FD1                     T1CLK           equ	4049	;# 
  1190   000FD1                     TMR1CLK         equ	4049	;# 
  1191   000FD1                     PR1             equ	4049	;# 
  1192   000FD2                     TMR0L           equ	4050	;# 
  1193   000FD2                     TMR0            equ	4050	;# 
  1194   000FD3                     TMR0H           equ	4051	;# 
  1195   000FD3                     PR0             equ	4051	;# 
  1196   000FD4                     T0CON0          equ	4052	;# 
  1197   000FD5                     T0CON1          equ	4053	;# 
  1198   000FD6                     PCON1           equ	4054	;# 
  1199   000FD7                     PCON0           equ	4055	;# 
  1200   000FD8                     STATUS          equ	4056	;# 
  1201   000FD9                     FSR2            equ	4057	;# 
  1202   000FD9                     FSR2L           equ	4057	;# 
  1203   000FDA                     FSR2H           equ	4058	;# 
  1204   000FDB                     PLUSW2          equ	4059	;# 
  1205   000FDC                     PREINC2         equ	4060	;# 
  1206   000FDD                     POSTDEC2        equ	4061	;# 
  1207   000FDE                     POSTINC2        equ	4062	;# 
  1208   000FDF                     INDF2           equ	4063	;# 
  1209   000FE0                     BSR             equ	4064	;# 
  1210   000FE1                     FSR1            equ	4065	;# 
  1211   000FE1                     FSR1L           equ	4065	;# 
  1212   000FE2                     FSR1H           equ	4066	;# 
  1213   000FE3                     PLUSW1          equ	4067	;# 
  1214   000FE4                     PREINC1         equ	4068	;# 
  1215   000FE5                     POSTDEC1        equ	4069	;# 
  1216   000FE6                     POSTINC1        equ	4070	;# 
  1217   000FE7                     INDF1           equ	4071	;# 
  1218   000FE8                     WREG            equ	4072	;# 
  1219   000FE9                     FSR0            equ	4073	;# 
  1220   000FE9                     FSR0L           equ	4073	;# 
  1221   000FEA                     FSR0H           equ	4074	;# 
  1222   000FEB                     PLUSW0          equ	4075	;# 
  1223   000FEC                     PREINC0         equ	4076	;# 
  1224   000FED                     POSTDEC0        equ	4077	;# 
  1225   000FEE                     POSTINC0        equ	4078	;# 
  1226   000FEF                     INDF0           equ	4079	;# 
  1227   000FF2                     INTCON          equ	4082	;# 
  1228   000FF3                     PROD            equ	4083	;# 
  1229   000FF3                     PRODL           equ	4083	;# 
  1230   000FF4                     PRODH           equ	4084	;# 
  1231   000FF5                     TABLAT          equ	4085	;# 
  1232   000FF6                     TBLPTR          equ	4086	;# 
  1233   000FF6                     TBLPTRL         equ	4086	;# 
  1234   000FF7                     TBLPTRH         equ	4087	;# 
  1235   000FF8                     TBLPTRU         equ	4088	;# 
  1236   000FF9                     PCLAT           equ	4089	;# 
  1237   000FF9                     PCL             equ	4089	;# 
  1238   000FFA                     PCLATH          equ	4090	;# 
  1239   000FFB                     PCLATU          equ	4091	;# 
  1240   000FFC                     STKPTR          equ	4092	;# 
  1241   000FFD                     TOS             equ	4093	;# 
  1242   000FFD                     TOSL            equ	4093	;# 
  1243   000FFE                     TOSH            equ	4094	;# 
  1244   000FFF                     TOSU            equ	4095	;# 
  1245   000EF7                     _RC5PPS         set	3831
  1246   000ED7                     _OSCEN          set	3799
  1247   000ED9                     _OSCFRQ         set	3801
  1248   000ED3                     _OSCCON1        set	3795
  1249   000F5E                     _ADRESL         set	3934
  1250   000F5F                     _ADRESH         set	3935
  1251   000F5A                     _ADPCH          set	3930
  1252   000F5B                     _ADCON0bits     set	3931
  1253   000F1C                     _ANSELCbits     set	3868
  1254   000F0C                     _ANSELAbits     set	3852
  1255   000F21                     _ANSELD         set	3873
  1256   000FBC                     _T2CON          set	4028
  1257   000FBE                     _T2CLKCON       set	4030
  1258   000FA9                     _CCPR1L         set	4009
  1259   000FAA                     _CCPR1H         set	4010
  1260   000FAB                     _CCP1CON        set	4011
  1261   000FBB                     _T2PR           set	4027
  1262   000F89                     _TRISCbits      set	3977
  1263   000F87                     _TRISAbits      set	3975
  1264   000F8F                     _PORTD          set	3983
  1265   000F85                     _LATD           set	3973
  1266   000F8A                     _TRISD          set	3978
  1267   000F85                     _LATDbits       set	3973
  1268                           
  1269                           	psect	smallconst
  1270   001000                     __psmallconst:
  1271                           	callstack 0
  1272   001000  00                 	db	0
  1273   001001                     STR_2:
  1274   001001  4D                 	db	77	;'M'
  1275   001002  69                 	db	105	;'i'
  1276   001003  63                 	db	99	;'c'
  1277   001004  72                 	db	114	;'r'
  1278   001005  6F                 	db	111	;'o'
  1279   001006  62                 	db	98	;'b'
  1280   001007  69                 	db	105	;'i'
  1281   001008  6F                 	db	111	;'o'
  1282   001009  73                 	db	115	;'s'
  1283   00100A  20                 	db	32
  1284   00100B  32                 	db	50	;'2'
  1285   00100C  30                 	db	48	;'0'
  1286   00100D  32                 	db	50	;'2'
  1287   00100E  36                 	db	54	;'6'
  1288   00100F  00                 	db	0
  1289   001010                     STR_1:
  1290   001010  48                 	db	72	;'H'
  1291   001011  6F                 	db	111	;'o'
  1292   001012  6C                 	db	108	;'l'
  1293   001013  61                 	db	97	;'a'
  1294   001014  20                 	db	32
  1295   001015  76                 	db	118	;'v'
  1296   001016  65                 	db	101	;'e'
  1297   001017  72                 	db	114	;'r'
  1298   001018  61                 	db	97	;'a'
  1299   001019  6E                 	db	110	;'n'
  1300   00101A  6F                 	db	111	;'o'
  1301   00101B  6E                 	db	110	;'n'
  1302   00101C  00                 	db	0
  1303   00101D                     STR_3:
  1304   00101D  41                 	db	65	;'A'
  1305   00101E  44                 	db	68	;'D'
  1306   00101F  43                 	db	67	;'C'
  1307   001020  20                 	db	32
  1308   001021  52                 	db	82	;'R'
  1309   001022  41                 	db	65	;'A'
  1310   001023  30                 	db	48	;'0'
  1311   001024  3A                 	db	58	;':'
  1312   001025  00                 	db	0
  1313   001026                     STR_4:
  1314   001026  44                 	db	68	;'D'
  1315   001027  43                 	db	67	;'C'
  1316   001028  3A                 	db	58	;':'
  1317   001029  00                 	db	0
  1318   00102A                     STR_5:
  1319   00102A  20                 	db	32
  1320   00102B  25                 	db	37
  1321   00102C  00                 	db	0
  1322   00102D  00                 	db	0	; dummy byte at the end
  1323   001000                     __smallconst    set	__psmallconst
  1324   001000                     __mediumconst   set	__psmallconst
  1325   000003                     __activetblptr  equ	3
  1326                           
  1327                           ; #config settings
  1328                           
  1329                           	psect	cinit
  1330   001D12                     __pcinit:
  1331                           	callstack 0
  1332   001D12                     start_initialization:
  1333                           	callstack 0
  1334   001D12                     __initialization:
  1335                           	callstack 0
  1336                           
  1337                           ; Clear objects allocated to COMRAM (2 bytes)
  1338   001D12  6A41               	clrf	(__pbssCOMRAM+1)& (0+255),c
  1339   001D14  6A40               	clrf	__pbssCOMRAM& (0+255),c
  1340   001D16                     end_of_initialization:
  1341                           	callstack 0
  1342   001D16                     __end_of__initialization:
  1343                           	callstack 0
  1344   001D16  0100               	movlb	0
  1345   001D18  EF6E  F00B         	goto	_main	;jump to C main() function
  1346                           
  1347                           	psect	bssCOMRAM
  1348   000040                     __pbssCOMRAM:
  1349                           	callstack 0
  1350   000040                     _cuenta:
  1351                           	callstack 0
  1352   000040                     	ds	2
  1353                           
  1354                           	psect	cstackCOMRAM
  1355   000001                     __pcstackCOMRAM:
  1356                           	callstack 0
  1357   000001                     ?_strlen:
  1358                           	callstack 0
  1359   000001                     ?___lwmod:
  1360                           	callstack 0
  1361   000001                     ?_tomamuestra_ADC:
  1362                           	callstack 0
  1363   000001                     ENVIA_NIBBLE@dato:
  1364                           	callstack 0
  1365   000001                     LEER_LCD@aux:
  1366                           	callstack 0
  1367   000001                     strlen@s:
  1368                           	callstack 0
  1369   000001                     ___lwmod@dividend:
  1370                           	callstack 0
  1371   000001                     
  1372                           ; 1 bytes @ 0x0
  1373   000001                     	ds	1
  1374   000002                     ENVIA_CHAR@dato:
  1375                           	callstack 0
  1376   000002                     ENVIA_LCD_CMD@dato:
  1377                           	callstack 0
  1378   000002                     
  1379                           ; 1 bytes @ 0x1
  1380   000002                     	ds	1
  1381   000003                     ENVIA_CHAR@aux:
  1382                           	callstack 0
  1383   000003                     ENVIA_LCD_CMD@aux:
  1384                           	callstack 0
  1385   000003                     strlen@a:
  1386                           	callstack 0
  1387   000003                     ___lwmod@divisor:
  1388                           	callstack 0
  1389   000003                     ??_tomamuestra_ADC:
  1390                           
  1391                           ; 1 bytes @ 0x2
  1392   000003                     	ds	1
  1393   000004                     POS_CURSOR@columna:
  1394                           	callstack 0
  1395   000004                     CURSOR_ONOFF@estado:
  1396                           	callstack 0
  1397   000004                     ESCRIBE_MENSAJE2@cadena:
  1398                           	callstack 0
  1399   000004                     ??_LCD_CONFIG:
  1400                           
  1401                           ; 1 bytes @ 0x3
  1402   000004                     	ds	1
  1403   000005                     ?___xxtofl:
  1404                           	callstack 0
  1405   000005                     POS_CURSOR@fila:
  1406                           	callstack 0
  1407   000005                     ___lwmod@counter:
  1408                           	callstack 0
  1409   000005                     ___xxtofl@val:
  1410                           	callstack 0
  1411   000005                     ??_ESCRIBE_MENSAJE2:
  1412   000005                     ??_LCD_INIT:
  1413                           
  1414                           ; 1 bytes @ 0x4
  1415   000005                     	ds	1
  1416   000006                     ?___lwdiv:
  1417                           	callstack 0
  1418   000006                     ESCRIBE_MENSAJE2@tam:
  1419                           	callstack 0
  1420   000006                     ___lwdiv@dividend:
  1421                           	callstack 0
  1422   000006                     
  1423                           ; 1 bytes @ 0x5
  1424   000006                     	ds	1
  1425   000007                     ESCRIBE_MENSAJE2@i:
  1426                           	callstack 0
  1427                           
  1428                           ; 1 bytes @ 0x6
  1429   000007                     	ds	1
  1430   000008                     ___lwdiv@divisor:
  1431                           	callstack 0
  1432                           
  1433                           ; 2 bytes @ 0x7
  1434   000008                     	ds	1
  1435   000009                     ??___xxtofl:
  1436                           
  1437                           ; 1 bytes @ 0x8
  1438   000009                     	ds	1
  1439   00000A                     ___lwdiv@quotient:
  1440                           	callstack 0
  1441   00000A                     
  1442                           ; 1 bytes @ 0x9
  1443   00000A                     	ds	2
  1444   00000C                     ___lwdiv@counter:
  1445                           	callstack 0
  1446                           
  1447                           ; 1 bytes @ 0xB
  1448   00000C                     	ds	1
  1449   00000D                     ___xxtofl@sign:
  1450                           	callstack 0
  1451                           
  1452                           ; 1 bytes @ 0xC
  1453   00000D                     	ds	1
  1454   00000E                     ___xxtofl@exp:
  1455                           	callstack 0
  1456                           
  1457                           ; 1 bytes @ 0xD
  1458   00000E                     	ds	1
  1459   00000F                     ___xxtofl@arg:
  1460                           	callstack 0
  1461                           
  1462                           ; 4 bytes @ 0xE
  1463   00000F                     	ds	4
  1464   000013                     ?___fldiv:
  1465                           	callstack 0
  1466   000013                     ___fldiv@b:
  1467                           	callstack 0
  1468                           
  1469                           ; 4 bytes @ 0x12
  1470   000013                     	ds	4
  1471   000017                     ___fldiv@a:
  1472                           	callstack 0
  1473                           
  1474                           ; 4 bytes @ 0x16
  1475   000017                     	ds	4
  1476   00001B                     ??___fldiv:
  1477                           
  1478                           ; 1 bytes @ 0x1A
  1479   00001B                     	ds	4
  1480   00001F                     ___fldiv@rem:
  1481                           	callstack 0
  1482                           
  1483                           ; 4 bytes @ 0x1E
  1484   00001F                     	ds	4
  1485   000023                     ___fldiv@sign:
  1486                           	callstack 0
  1487                           
  1488                           ; 1 bytes @ 0x22
  1489   000023                     	ds	1
  1490   000024                     ___fldiv@new_exp:
  1491                           	callstack 0
  1492                           
  1493                           ; 2 bytes @ 0x23
  1494   000024                     	ds	2
  1495   000026                     ___fldiv@grs:
  1496                           	callstack 0
  1497                           
  1498                           ; 4 bytes @ 0x25
  1499   000026                     	ds	4
  1500   00002A                     ___fldiv@bexp:
  1501                           	callstack 0
  1502                           
  1503                           ; 1 bytes @ 0x29
  1504   00002A                     	ds	1
  1505   00002B                     ___fldiv@aexp:
  1506                           	callstack 0
  1507                           
  1508                           ; 1 bytes @ 0x2A
  1509   00002B                     	ds	1
  1510   00002C                     ?___fltol:
  1511                           	callstack 0
  1512   00002C                     ___fltol@f1:
  1513                           	callstack 0
  1514                           
  1515                           ; 4 bytes @ 0x2B
  1516   00002C                     	ds	4
  1517   000030                     ??___fltol:
  1518                           
  1519                           ; 1 bytes @ 0x2F
  1520   000030                     	ds	4
  1521   000034                     ___fltol@sign1:
  1522                           	callstack 0
  1523                           
  1524                           ; 1 bytes @ 0x33
  1525   000034                     	ds	1
  1526   000035                     ___fltol@exp1:
  1527                           	callstack 0
  1528                           
  1529                           ; 1 bytes @ 0x34
  1530   000035                     	ds	1
  1531   000036                     LCD_ESCRIBE_VAR_INT@numero:
  1532                           	callstack 0
  1533                           
  1534                           ; 2 bytes @ 0x35
  1535   000036                     	ds	2
  1536   000038                     LCD_ESCRIBE_VAR_INT@n_digitos:
  1537                           	callstack 0
  1538                           
  1539                           ; 1 bytes @ 0x37
  1540   000038                     	ds	1
  1541   000039                     LCD_ESCRIBE_VAR_INT@d_millar:
  1542                           	callstack 0
  1543   000039                     
  1544                           ; 1 bytes @ 0x38
  1545   000039                     	ds	1
  1546   00003A                     LCD_ESCRIBE_VAR_INT@millar:
  1547                           	callstack 0
  1548                           
  1549                           ; 1 bytes @ 0x39
  1550   00003A                     	ds	1
  1551   00003B                     LCD_ESCRIBE_VAR_INT@centena:
  1552                           	callstack 0
  1553                           
  1554                           ; 1 bytes @ 0x3A
  1555   00003B                     	ds	1
  1556   00003C                     LCD_ESCRIBE_VAR_INT@decena:
  1557                           	callstack 0
  1558                           
  1559                           ; 1 bytes @ 0x3B
  1560   00003C                     	ds	1
  1561   00003D                     LCD_ESCRIBE_VAR_INT@unidad:
  1562                           	callstack 0
  1563                           
  1564                           ; 1 bytes @ 0x3C
  1565   00003D                     	ds	1
  1566   00003E                     ??_main:
  1567                           
  1568                           ; 1 bytes @ 0x3D
  1569   00003E                     	ds	2
  1570                           
  1571 ;;
  1572 ;;Main: autosize = 0, tempsize = 2, incstack = 0, save=0
  1573 ;;
  1574 ;; *************** function _main *****************
  1575 ;; Defined at:
  1576 ;;		line 49 in file "maincode02.c"
  1577 ;; Parameters:    Size  Location     Type
  1578 ;;		None
  1579 ;; Auto vars:     Size  Location     Type
  1580 ;;		None
  1581 ;; Return value:  Size  Location     Type
  1582 ;;                  1    wreg      void 
  1583 ;; Registers used:
  1584 ;;		wreg, status,2, status,0, tblptrl, tblptrh, tblptru, cstack
  1585 ;; Tracked objects:
  1586 ;;		On entry : 0/0
  1587 ;;		On exit  : 0/0
  1588 ;;		Unchanged: 0/0
  1589 ;; Data sizes:     COMRAM   BANK0   BANK1   BANK2   BANK3   BANK4   BANK5   BANK6   BANK7   BANK8   BANK9  BANK10  BANK1
      +1  BANK12  BANK14
  1590 ;;      Params:         0       0       0       0       0       0       0       0       0       0       0       0       
      +0       0       0
  1591 ;;      Locals:         0       0       0       0       0       0       0       0       0       0       0       0       
      +0       0       0
  1592 ;;      Temps:          2       0       0       0       0       0       0       0       0       0       0       0       
      +0       0       0
  1593 ;;      Totals:         2       0       0       0       0       0       0       0       0       0       0       0       
      +0       0       0
  1594 ;;Total ram usage:        2 bytes
  1595 ;; Hardware stack levels required when called: 4
  1596 ;; This function calls:
  1597 ;;		_BORRAR_LCD
  1598 ;;		_ESCRIBE_MENSAJE2
  1599 ;;		_LCD_ESCRIBE_VAR_INT
  1600 ;;		_POS_CURSOR
  1601 ;;		___fldiv
  1602 ;;		___fltol
  1603 ;;		___xxtofl
  1604 ;;		_configuro
  1605 ;;		_tomamuestra_ADC
  1606 ;; This function is called by:
  1607 ;;		Startup code after reset
  1608 ;; This function uses a non-reentrant model
  1609 ;;
  1610                           
  1611                           	psect	text0
  1612   0016DC                     __ptext0:
  1613                           	callstack 0
  1614   0016DC                     _main:
  1615                           	callstack 27
  1616   0016DC                     
  1617                           ;maincode02.c: 50:     configuro();
  1618   0016DC  ECA3  F00D         	call	_configuro	;wreg free
  1619                           
  1620                           ;maincode02.c: 51:     POS_CURSOR(1,1);
  1621   0016E0  0E01               	movlw	1
  1622   0016E2  6E04               	movwf	POS_CURSOR@columna^0,c
  1623   0016E4  0E01               	movlw	1
  1624   0016E6  EC9A  F00C         	call	_POS_CURSOR
  1625   0016EA                     
  1626                           ;maincode02.c: 52:     ESCRIBE_MENSAJE2("Hola veranon");
  1627   0016EA  0E10               	movlw	low STR_1
  1628   0016EC  6E04               	movwf	ESCRIBE_MENSAJE2@cadena^0,c
  1629   0016EE  ECC4  F00D         	call	_ESCRIBE_MENSAJE2	;wreg free
  1630   0016F2                     
  1631                           ;maincode02.c: 53:     POS_CURSOR(2,0);
  1632   0016F2  0E00               	movlw	0
  1633   0016F4  6E04               	movwf	POS_CURSOR@columna^0,c
  1634   0016F6  0E02               	movlw	2
  1635   0016F8  EC9A  F00C         	call	_POS_CURSOR
  1636                           
  1637                           ;maincode02.c: 54:     ESCRIBE_MENSAJE2("Microbios 2026");
  1638   0016FC  0E01               	movlw	low STR_2
  1639   0016FE  6E04               	movwf	ESCRIBE_MENSAJE2@cadena^0,c
  1640   001700  ECC4  F00D         	call	_ESCRIBE_MENSAJE2	;wreg free
  1641   001704                     
  1642                           ;maincode02.c: 55:     _delay((unsigned long)((3000)*(32000000UL/4000.0)));
  1643   001704  0E7A               	movlw	122
  1644   001706  6E3F               	movwf	(??_main+1)^0,c
  1645   001708  0EC1               	movlw	193
  1646   00170A  6E3E               	movwf	??_main^0,c
  1647   00170C  0E82               	movlw	130
  1648   00170E                     u1197:
  1649   00170E  2EE8               	decfsz	wreg,f,c
  1650   001710  D7FE               	bra	u1197
  1651   001712  2E3E               	decfsz	??_main^0,f,c
  1652   001714  D7FC               	bra	u1197
  1653   001716  2E3F               	decfsz	(??_main+1)^0,f,c
  1654   001718  D7FA               	bra	u1197
  1655   00171A                     
  1656                           ;maincode02.c: 56:     BORRAR_LCD();
  1657   00171A  EC92  F00E         	call	_BORRAR_LCD	;wreg free
  1658   00171E                     l1906:
  1659                           
  1660                           ;maincode02.c: 58:         POS_CURSOR(1,0);
  1661   00171E  0E00               	movlw	0
  1662   001720  6E04               	movwf	POS_CURSOR@columna^0,c
  1663   001722  0E01               	movlw	1
  1664   001724  EC9A  F00C         	call	_POS_CURSOR
  1665   001728                     
  1666                           ;maincode02.c: 59:         ESCRIBE_MENSAJE2("ADC RA0:");
  1667   001728  0E1D               	movlw	low STR_3
  1668   00172A  6E04               	movwf	ESCRIBE_MENSAJE2@cadena^0,c
  1669   00172C  ECC4  F00D         	call	_ESCRIBE_MENSAJE2	;wreg free
  1670   001730                     
  1671                           ;maincode02.c: 60:         LCD_ESCRIBE_VAR_INT(tomamuestra_ADC(), 5);
  1672   001730  EC68  F00E         	call	_tomamuestra_ADC	;wreg free
  1673   001734  C001  F036         	movff	?_tomamuestra_ADC,LCD_ESCRIBE_VAR_INT@numero
  1674   001738  C002  F037         	movff	?_tomamuestra_ADC+1,LCD_ESCRIBE_VAR_INT@numero+1
  1675   00173C  0E05               	movlw	5
  1676   00173E  6E38               	movwf	LCD_ESCRIBE_VAR_INT@n_digitos^0,c
  1677   001740  ECB8  F00A         	call	_LCD_ESCRIBE_VAR_INT	;wreg free
  1678   001744                     
  1679                           ;maincode02.c: 61:         POS_CURSOR(2,0);
  1680   001744  0E00               	movlw	0
  1681   001746  6E04               	movwf	POS_CURSOR@columna^0,c
  1682   001748  0E02               	movlw	2
  1683   00174A  EC9A  F00C         	call	_POS_CURSOR
  1684   00174E                     
  1685                           ;maincode02.c: 62:         ESCRIBE_MENSAJE2("DC:");
  1686   00174E  0E26               	movlw	low STR_4
  1687   001750  6E04               	movwf	ESCRIBE_MENSAJE2@cadena^0,c
  1688   001752  ECC4  F00D         	call	_ESCRIBE_MENSAJE2	;wreg free
  1689   001756                     
  1690                           ;maincode02.c: 63:         LCD_ESCRIBE_VAR_INT(tomamuestra_ADC()/10.333, 3);
  1691   001756  0EF8               	movlw	248
  1692   001758  6E17               	movwf	___fldiv@a^0,c
  1693   00175A  0E53               	movlw	83
  1694   00175C  6E18               	movwf	(___fldiv@a+1)^0,c
  1695   00175E  0E25               	movlw	37
  1696   001760  6E19               	movwf	(___fldiv@a+2)^0,c
  1697   001762  0E41               	movlw	65
  1698   001764  6E1A               	movwf	(___fldiv@a+3)^0,c
  1699   001766  EC68  F00E         	call	_tomamuestra_ADC	;wreg free
  1700   00176A  C001  F005         	movff	?_tomamuestra_ADC,___xxtofl@val
  1701   00176E  C002  F006         	movff	?_tomamuestra_ADC+1,___xxtofl@val+1
  1702   001772  6A07               	clrf	(___xxtofl@val+2)^0,c
  1703   001774  6A08               	clrf	(___xxtofl@val+3)^0,c
  1704   001776  0E00               	movlw	0
  1705   001778  ECDE  F009         	call	___xxtofl
  1706   00177C  C005  F013         	movff	?___xxtofl,___fldiv@b
  1707   001780  C006  F014         	movff	?___xxtofl+1,___fldiv@b+1
  1708   001784  C007  F015         	movff	?___xxtofl+2,___fldiv@b+2
  1709   001788  C008  F016         	movff	?___xxtofl+3,___fldiv@b+3
  1710   00178C  EC17  F008         	call	___fldiv	;wreg free
  1711   001790  C013  F02C         	movff	?___fldiv,___fltol@f1
  1712   001794  C014  F02D         	movff	?___fldiv+1,___fltol@f1+1
  1713   001798  C015  F02E         	movff	?___fldiv+2,___fltol@f1+2
  1714   00179C  C016  F02F         	movff	?___fldiv+3,___fltol@f1+3
  1715   0017A0  EC17  F00C         	call	___fltol	;wreg free
  1716   0017A4  C02C  F036         	movff	?___fltol,LCD_ESCRIBE_VAR_INT@numero
  1717   0017A8  C02D  F037         	movff	?___fltol+1,LCD_ESCRIBE_VAR_INT@numero+1
  1718   0017AC  0E03               	movlw	3
  1719   0017AE  6E38               	movwf	LCD_ESCRIBE_VAR_INT@n_digitos^0,c
  1720   0017B0  ECB8  F00A         	call	_LCD_ESCRIBE_VAR_INT	;wreg free
  1721   0017B4                     
  1722                           ;maincode02.c: 64:         ESCRIBE_MENSAJE2(" %");
  1723   0017B4  0E2A               	movlw	low STR_5
  1724   0017B6  6E04               	movwf	ESCRIBE_MENSAJE2@cadena^0,c
  1725   0017B8  ECC4  F00D         	call	_ESCRIBE_MENSAJE2	;wreg free
  1726   0017BC                     
  1727                           ;maincode02.c: 65:         CCPR1H = (tomamuestra_ADC() / 16.5);
  1728   0017BC  0E00               	movlw	0
  1729   0017BE  6E17               	movwf	___fldiv@a^0,c
  1730   0017C0  0E00               	movlw	0
  1731   0017C2  6E18               	movwf	(___fldiv@a+1)^0,c
  1732   0017C4  0E84               	movlw	132
  1733   0017C6  6E19               	movwf	(___fldiv@a+2)^0,c
  1734   0017C8  0E41               	movlw	65
  1735   0017CA  6E1A               	movwf	(___fldiv@a+3)^0,c
  1736   0017CC  EC68  F00E         	call	_tomamuestra_ADC	;wreg free
  1737   0017D0  C001  F005         	movff	?_tomamuestra_ADC,___xxtofl@val
  1738   0017D4  C002  F006         	movff	?_tomamuestra_ADC+1,___xxtofl@val+1
  1739   0017D8  6A07               	clrf	(___xxtofl@val+2)^0,c
  1740   0017DA  6A08               	clrf	(___xxtofl@val+3)^0,c
  1741   0017DC  0E00               	movlw	0
  1742   0017DE  ECDE  F009         	call	___xxtofl
  1743   0017E2  C005  F013         	movff	?___xxtofl,___fldiv@b
  1744   0017E6  C006  F014         	movff	?___xxtofl+1,___fldiv@b+1
  1745   0017EA  C007  F015         	movff	?___xxtofl+2,___fldiv@b+2
  1746   0017EE  C008  F016         	movff	?___xxtofl+3,___fldiv@b+3
  1747   0017F2  EC17  F008         	call	___fldiv	;wreg free
  1748   0017F6  C013  F02C         	movff	?___fldiv,___fltol@f1
  1749   0017FA  C014  F02D         	movff	?___fldiv+1,___fltol@f1+1
  1750   0017FE  C015  F02E         	movff	?___fldiv+2,___fltol@f1+2
  1751   001802  C016  F02F         	movff	?___fldiv+3,___fltol@f1+3
  1752   001806  EC17  F00C         	call	___fltol	;wreg free
  1753   00180A  502C               	movf	?___fltol^0,w,c
  1754   00180C  6EAA               	movwf	170,c	;volatile
  1755                           
  1756                           ;maincode02.c: 66:         _delay((unsigned long)((100)*(32000000UL/4000.0)));
  1757   00180E  0E05               	movlw	5
  1758   001810  6E3F               	movwf	(??_main+1)^0,c
  1759   001812  0E0F               	movlw	15
  1760   001814  6E3E               	movwf	??_main^0,c
  1761   001816  0EF1               	movlw	241
  1762   001818                     u1207:
  1763   001818  2EE8               	decfsz	wreg,f,c
  1764   00181A  D7FE               	bra	u1207
  1765   00181C  2E3E               	decfsz	??_main^0,f,c
  1766   00181E  D7FC               	bra	u1207
  1767   001820  2E3F               	decfsz	(??_main+1)^0,f,c
  1768   001822  D7FA               	bra	u1207
  1769   001824  0000               	nop	
  1770   001826  EF8F  F00B         	goto	l1906
  1771   00182A  EFFE  F0FF         	goto	start
  1772   00182E                     __end_of_main:
  1773                           	callstack 0
  1774                           
  1775 ;; *************** function _tomamuestra_ADC *****************
  1776 ;; Defined at:
  1777 ;;		line 43 in file "maincode02.c"
  1778 ;; Parameters:    Size  Location     Type
  1779 ;;		None
  1780 ;; Auto vars:     Size  Location     Type
  1781 ;;		None
  1782 ;; Return value:  Size  Location     Type
  1783 ;;                  2    0[COMRAM] unsigned int 
  1784 ;; Registers used:
  1785 ;;		wreg, status,2, status,0
  1786 ;; Tracked objects:
  1787 ;;		On entry : 0/0
  1788 ;;		On exit  : 0/0
  1789 ;;		Unchanged: 0/0
  1790 ;; Data sizes:     COMRAM   BANK0   BANK1   BANK2   BANK3   BANK4   BANK5   BANK6   BANK7   BANK8   BANK9  BANK10  BANK1
      +1  BANK12  BANK14
  1791 ;;      Params:         2       0       0       0       0       0       0       0       0       0       0       0       
      +0       0       0
  1792 ;;      Locals:         0       0       0       0       0       0       0       0       0       0       0       0       
      +0       0       0
  1793 ;;      Temps:          2       0       0       0       0       0       0       0       0       0       0       0       
      +0       0       0
  1794 ;;      Totals:         4       0       0       0       0       0       0       0       0       0       0       0       
      +0       0       0
  1795 ;;Total ram usage:        4 bytes
  1796 ;; Hardware stack levels used: 1
  1797 ;; This function calls:
  1798 ;;		Nothing
  1799 ;; This function is called by:
  1800 ;;		_main
  1801 ;; This function uses a non-reentrant model
  1802 ;;
  1803                           
  1804                           	psect	text1
  1805   001CD0                     __ptext1:
  1806                           	callstack 0
  1807   001CD0                     _tomamuestra_ADC:
  1808                           	callstack 30
  1809   001CD0                     
  1810                           ;maincode02.c: 44:     ADCON0bits.GO_nDONE = 1;
  1811   001CD0  010F               	movlb	15	; () banked
  1812   001CD2  815B               	bsf	91,0,b	;volatile
  1813   001CD4                     l187:
  1814                           
  1815                           ; BSR set to: 15
  1816   001CD4  B15B               	btfsc	91,0,b	;volatile
  1817   001CD6  EF6F  F00E         	goto	u781
  1818   001CDA  EF71  F00E         	goto	u780
  1819   001CDE                     u781:
  1820   001CDE  EF6A  F00E         	goto	l187
  1821   001CE2                     u780:
  1822   001CE2                     
  1823                           ; BSR set to: 15
  1824                           ;maincode02.c: 46:     return ((ADRESH << 8) + ADRESL);
  1825   001CE2  515F               	movf	95,w,b	;volatile
  1826   001CE4  6E04               	movwf	(??_tomamuestra_ADC+1)^0,c
  1827   001CE6  6A03               	clrf	??_tomamuestra_ADC^0,c
  1828   001CE8  515E               	movf	94,w,b	;volatile
  1829   001CEA  2403               	addwf	??_tomamuestra_ADC^0,w,c
  1830   001CEC  6E01               	movwf	?_tomamuestra_ADC^0,c
  1831   001CEE  0E00               	movlw	0
  1832   001CF0  2004               	addwfc	(??_tomamuestra_ADC+1)^0,w,c
  1833   001CF2  6E02               	movwf	(?_tomamuestra_ADC+1)^0,c
  1834   001CF4                     
  1835                           ; BSR set to: 15
  1836   001CF4  0012               	return		;funcret
  1837   001CF6                     __end_of_tomamuestra_ADC:
  1838                           	callstack 0
  1839                           
  1840 ;; *************** function _configuro *****************
  1841 ;; Defined at:
  1842 ;;		line 14 in file "maincode02.c"
  1843 ;; Parameters:    Size  Location     Type
  1844 ;;		None
  1845 ;; Auto vars:     Size  Location     Type
  1846 ;;		None
  1847 ;; Return value:  Size  Location     Type
  1848 ;;                  1    wreg      void 
  1849 ;; Registers used:
  1850 ;;		wreg, status,2, status,0, cstack
  1851 ;; Tracked objects:
  1852 ;;		On entry : 0/0
  1853 ;;		On exit  : 0/0
  1854 ;;		Unchanged: 0/0
  1855 ;; Data sizes:     COMRAM   BANK0   BANK1   BANK2   BANK3   BANK4   BANK5   BANK6   BANK7   BANK8   BANK9  BANK10  BANK1
      +1  BANK12  BANK14
  1856 ;;      Params:         0       0       0       0       0       0       0       0       0       0       0       0       
      +0       0       0
  1857 ;;      Locals:         0       0       0       0       0       0       0       0       0       0       0       0       
      +0       0       0
  1858 ;;      Temps:          0       0       0       0       0       0       0       0       0       0       0       0       
      +0       0       0
  1859 ;;      Totals:         0       0       0       0       0       0       0       0       0       0       0       0       
      +0       0       0
  1860 ;;Total ram usage:        0 bytes
  1861 ;; Hardware stack levels used: 1
  1862 ;; Hardware stack levels required when called: 3
  1863 ;; This function calls:
  1864 ;;		_LCD_INIT
  1865 ;; This function is called by:
  1866 ;;		_main
  1867 ;; This function uses a non-reentrant model
  1868 ;;
  1869                           
  1870                           	psect	text2
  1871   001B46                     __ptext2:
  1872                           	callstack 0
  1873   001B46                     _configuro:
  1874                           	callstack 27
  1875   001B46                     
  1876                           ;maincode02.c: 16:     OSCCON1 = 0x60;
  1877   001B46  0E60               	movlw	96
  1878   001B48  010E               	movlb	14	; () banked
  1879   001B4A  6FD3               	movwf	211,b	;volatile
  1880                           
  1881                           ;maincode02.c: 17:     OSCFRQ = 0x06;
  1882   001B4C  0E06               	movlw	6
  1883   001B4E  6FD9               	movwf	217,b	;volatile
  1884                           
  1885                           ;maincode02.c: 18:     OSCEN = 0x40;
  1886   001B50  0E40               	movlw	64
  1887   001B52  6FD7               	movwf	215,b	;volatile
  1888   001B54                     
  1889                           ; BSR set to: 14
  1890                           ;maincode02.c: 20:     TRISAbits.TRISA0 = 1;
  1891   001B54  8087               	bsf	135,0,c	;volatile
  1892   001B56                     
  1893                           ; BSR set to: 14
  1894                           ;maincode02.c: 21:     ANSELAbits.ANSELA0 = 1;
  1895   001B56  010F               	movlb	15	; () banked
  1896   001B58  810C               	bsf	12,0,b	;volatile
  1897   001B5A                     
  1898                           ; BSR set to: 15
  1899                           ;maincode02.c: 22:     TRISCbits.TRISC5 = 0;
  1900   001B5A  9A89               	bcf	137,5,c	;volatile
  1901   001B5C                     
  1902                           ; BSR set to: 15
  1903                           ;maincode02.c: 23:     ANSELCbits.ANSELC5 = 0;
  1904   001B5C  9B1C               	bcf	28,5,b	;volatile
  1905   001B5E                     
  1906                           ; BSR set to: 15
  1907                           ;maincode02.c: 27:     ADCON0bits.ADFM = 1;
  1908   001B5E  855B               	bsf	91,2,b	;volatile
  1909   001B60                     
  1910                           ; BSR set to: 15
  1911                           ;maincode02.c: 28:     ADCON0bits.ADCS = 1;
  1912   001B60  895B               	bsf	91,4,b	;volatile
  1913   001B62                     
  1914                           ; BSR set to: 15
  1915                           ;maincode02.c: 29:     ADPCH = 0x00;
  1916   001B62  6B5A               	clrf	90,b	;volatile
  1917   001B64                     
  1918                           ; BSR set to: 15
  1919                           ;maincode02.c: 30:     ADCON0bits.ADON = 1;
  1920   001B64  8F5B               	bsf	91,7,b	;volatile
  1921                           
  1922                           ;maincode02.c: 32:     T2PR = 62;
  1923   001B66  0E3E               	movlw	62
  1924   001B68  6EBB               	movwf	187,c	;volatile
  1925                           
  1926                           ;maincode02.c: 33:     RC5PPS = 0x05;
  1927   001B6A  0E05               	movlw	5
  1928   001B6C  010E               	movlb	14	; () banked
  1929   001B6E  6FF7               	movwf	247,b	;volatile
  1930                           
  1931                           ;maincode02.c: 34:     CCP1CON = 0x9C;
  1932   001B70  0E9C               	movlw	156
  1933   001B72  6EAB               	movwf	171,c	;volatile
  1934                           
  1935                           ;maincode02.c: 35:     CCPR1H = 31;
  1936   001B74  0E1F               	movlw	31
  1937   001B76  6EAA               	movwf	170,c	;volatile
  1938   001B78                     
  1939                           ; BSR set to: 14
  1940                           ;maincode02.c: 36:     CCPR1L = 0;
  1941   001B78  6AA9               	clrf	169,c	;volatile
  1942                           
  1943                           ;maincode02.c: 37:     T2CLKCON = 0x01;
  1944   001B7A  0E01               	movlw	1
  1945   001B7C  6EBE               	movwf	190,c	;volatile
  1946                           
  1947                           ;maincode02.c: 38:     T2CON = 0xC0;
  1948   001B7E  0EC0               	movlw	192
  1949   001B80  6EBC               	movwf	188,c	;volatile
  1950   001B82                     
  1951                           ; BSR set to: 14
  1952                           ;maincode02.c: 40:     LCD_INIT();
  1953   001B82  ECE5  F00D         	call	_LCD_INIT	;wreg free
  1954   001B86  0012               	return		;funcret
  1955   001B88                     __end_of_configuro:
  1956                           	callstack 0
  1957                           
  1958 ;; *************** function _LCD_INIT *****************
  1959 ;; Defined at:
  1960 ;;		line 192 in file "LCD.c"
  1961 ;; Parameters:    Size  Location     Type
  1962 ;;		None
  1963 ;; Auto vars:     Size  Location     Type
  1964 ;;		None
  1965 ;; Return value:  Size  Location     Type
  1966 ;;                  1    wreg      void 
  1967 ;; Registers used:
  1968 ;;		wreg, status,2, status,0, cstack
  1969 ;; Tracked objects:
  1970 ;;		On entry : 0/0
  1971 ;;		On exit  : 0/0
  1972 ;;		Unchanged: 0/0
  1973 ;; Data sizes:     COMRAM   BANK0   BANK1   BANK2   BANK3   BANK4   BANK5   BANK6   BANK7   BANK8   BANK9  BANK10  BANK1
      +1  BANK12  BANK14
  1974 ;;      Params:         0       0       0       0       0       0       0       0       0       0       0       0       
      +0       0       0
  1975 ;;      Locals:         0       0       0       0       0       0       0       0       0       0       0       0       
      +0       0       0
  1976 ;;      Temps:          1       0       0       0       0       0       0       0       0       0       0       0       
      +0       0       0
  1977 ;;      Totals:         1       0       0       0       0       0       0       0       0       0       0       0       
      +0       0       0
  1978 ;;Total ram usage:        1 bytes
  1979 ;; Hardware stack levels used: 1
  1980 ;; Hardware stack levels required when called: 2
  1981 ;; This function calls:
  1982 ;;		_BORRAR_LCD
  1983 ;;		_CURSOR_HOME
  1984 ;;		_CURSOR_ONOFF
  1985 ;;		_LCD_CONFIG
  1986 ;; This function is called by:
  1987 ;;		_configuro
  1988 ;; This function uses a non-reentrant model
  1989 ;;
  1990                           
  1991                           	psect	text3
  1992   001BCA                     __ptext3:
  1993                           	callstack 0
  1994   001BCA                     _LCD_INIT:
  1995                           	callstack 27
  1996   001BCA                     
  1997                           ;LCD.c: 193:     TRISD = 0x00;
  1998   001BCA  6A8A               	clrf	138,c	;volatile
  1999                           
  2000                           ;LCD.c: 194:     ANSELD = 0x00;
  2001   001BCC  010F               	movlb	15	; () banked
  2002   001BCE  6B21               	clrf	33,b	;volatile
  2003   001BD0                     
  2004                           ; BSR set to: 15
  2005                           ;LCD.c: 195:     _delay((unsigned long)((15)*(32000000UL/4000.0)));
  2006   001BD0  0E9C               	movlw	156
  2007   001BD2  6E05               	movwf	??_LCD_INIT^0,c
  2008   001BD4  0ED7               	movlw	215
  2009   001BD6                     u1217:
  2010   001BD6  2EE8               	decfsz	wreg,f,c
  2011   001BD8  D7FE               	bra	u1217
  2012   001BDA  2E05               	decfsz	??_LCD_INIT^0,f,c
  2013   001BDC  D7FC               	bra	u1217
  2014   001BDE  0000               	nop	
  2015   001BE0                     
  2016                           ;LCD.c: 196:     LCD_CONFIG();
  2017   001BE0  EC79  F00D         	call	_LCD_CONFIG	;wreg free
  2018   001BE4                     
  2019                           ;LCD.c: 197:     _delay((unsigned long)((15)*(32000000UL/4000.0)));
  2020   001BE4  0E9C               	movlw	156
  2021   001BE6  6E05               	movwf	??_LCD_INIT^0,c
  2022   001BE8  0ED7               	movlw	215
  2023   001BEA                     u1227:
  2024   001BEA  2EE8               	decfsz	wreg,f,c
  2025   001BEC  D7FE               	bra	u1227
  2026   001BEE  2E05               	decfsz	??_LCD_INIT^0,f,c
  2027   001BF0  D7FC               	bra	u1227
  2028   001BF2  0000               	nop	
  2029                           
  2030                           ;LCD.c: 198:     BORRAR_LCD();
  2031   001BF4  EC92  F00E         	call	_BORRAR_LCD	;wreg free
  2032                           
  2033                           ;LCD.c: 199:     CURSOR_HOME();
  2034   001BF8  EC8E  F00E         	call	_CURSOR_HOME	;wreg free
  2035                           
  2036                           ;LCD.c: 200:     CURSOR_ONOFF(1);
  2037   001BFC  0E01               	movlw	1
  2038   001BFE  EC50  F00E         	call	_CURSOR_ONOFF
  2039   001C02  0012               	return		;funcret
  2040   001C04                     __end_of_LCD_INIT:
  2041                           	callstack 0
  2042                           
  2043 ;; *************** function _LCD_CONFIG *****************
  2044 ;; Defined at:
  2045 ;;		line 109 in file "LCD.c"
  2046 ;; Parameters:    Size  Location     Type
  2047 ;;		None
  2048 ;; Auto vars:     Size  Location     Type
  2049 ;;		None
  2050 ;; Return value:  Size  Location     Type
  2051 ;;                  1    wreg      void 
  2052 ;; Registers used:
  2053 ;;		wreg, status,2, status,0, cstack
  2054 ;; Tracked objects:
  2055 ;;		On entry : 0/0
  2056 ;;		On exit  : 0/0
  2057 ;;		Unchanged: 0/0
  2058 ;; Data sizes:     COMRAM   BANK0   BANK1   BANK2   BANK3   BANK4   BANK5   BANK6   BANK7   BANK8   BANK9  BANK10  BANK1
      +1  BANK12  BANK14
  2059 ;;      Params:         0       0       0       0       0       0       0       0       0       0       0       0       
      +0       0       0
  2060 ;;      Locals:         0       0       0       0       0       0       0       0       0       0       0       0       
      +0       0       0
  2061 ;;      Temps:          1       0       0       0       0       0       0       0       0       0       0       0       
      +0       0       0
  2062 ;;      Totals:         1       0       0       0       0       0       0       0       0       0       0       0       
      +0       0       0
  2063 ;;Total ram usage:        1 bytes
  2064 ;; Hardware stack levels used: 1
  2065 ;; Hardware stack levels required when called: 1
  2066 ;; This function calls:
  2067 ;;		_ENVIA_LCD_CMD
  2068 ;;		_ENVIA_NIBBLE
  2069 ;; This function is called by:
  2070 ;;		_LCD_INIT
  2071 ;; This function uses a non-reentrant model
  2072 ;;
  2073                           
  2074                           	psect	text4
  2075   001AF2                     __ptext4:
  2076                           	callstack 0
  2077   001AF2                     _LCD_CONFIG:
  2078                           	callstack 27
  2079   001AF2                     
  2080                           ;LCD.c: 111:  LATDbits.LATD0 = 0;
  2081   001AF2  9085               	bcf	133,0,c	;volatile
  2082                           
  2083                           ;LCD.c: 112:  LATDbits.LATD1 = 0;
  2084   001AF4  9285               	bcf	133,1,c	;volatile
  2085   001AF6                     
  2086                           ;LCD.c: 113:  ENVIA_NIBBLE(0x30);
  2087   001AF6  0E30               	movlw	48
  2088   001AF8  EC7B  F00E         	call	_ENVIA_NIBBLE
  2089   001AFC                     
  2090                           ;LCD.c: 114:     _delay((unsigned long)((2)*(32000000UL/4000.0)));
  2091   001AFC  0E15               	movlw	21
  2092   001AFE  6E04               	movwf	??_LCD_CONFIG^0,c
  2093   001B00  0EC6               	movlw	198
  2094   001B02                     u1237:
  2095   001B02  2EE8               	decfsz	wreg,f,c
  2096   001B04  D7FE               	bra	u1237
  2097   001B06  2E04               	decfsz	??_LCD_CONFIG^0,f,c
  2098   001B08  D7FC               	bra	u1237
  2099   001B0A  D000               	nop2	
  2100   001B0C                     
  2101                           ;LCD.c: 115:  ENVIA_NIBBLE(0x30);
  2102   001B0C  0E30               	movlw	48
  2103   001B0E  EC7B  F00E         	call	_ENVIA_NIBBLE
  2104                           
  2105                           ;LCD.c: 116:     _delay((unsigned long)((100)*(32000000UL/4000000.0)));
  2106   001B12  0EA0               	movlw	160
  2107   001B14                     u1247:
  2108   001B14  D000               	nop2	
  2109   001B16  2EE8               	decfsz	wreg,f,c
  2110   001B18  D7FD               	bra	u1247
  2111   001B1A                     
  2112                           ;LCD.c: 117:     ENVIA_NIBBLE(0x30);
  2113   001B1A  0E30               	movlw	48
  2114   001B1C  EC7B  F00E         	call	_ENVIA_NIBBLE
  2115   001B20                     
  2116                           ;LCD.c: 118:  ENVIA_NIBBLE(0x20);
  2117   001B20  0E20               	movlw	32
  2118   001B22  EC7B  F00E         	call	_ENVIA_NIBBLE
  2119   001B26                     
  2120                           ;LCD.c: 119:  ENVIA_LCD_CMD(0x01);
  2121   001B26  0E01               	movlw	1
  2122   001B28  EC1E  F00E         	call	_ENVIA_LCD_CMD
  2123   001B2C                     
  2124                           ;LCD.c: 120:  ENVIA_LCD_CMD(0x28);
  2125   001B2C  0E28               	movlw	40
  2126   001B2E  EC1E  F00E         	call	_ENVIA_LCD_CMD
  2127   001B32                     
  2128                           ;LCD.c: 121:  ENVIA_LCD_CMD(0x0F);
  2129   001B32  0E0F               	movlw	15
  2130   001B34  EC1E  F00E         	call	_ENVIA_LCD_CMD
  2131   001B38                     
  2132                           ;LCD.c: 122:  ENVIA_LCD_CMD(0x06);
  2133   001B38  0E06               	movlw	6
  2134   001B3A  EC1E  F00E         	call	_ENVIA_LCD_CMD
  2135   001B3E                     
  2136                           ;LCD.c: 123:  ENVIA_LCD_CMD(0x01);
  2137   001B3E  0E01               	movlw	1
  2138   001B40  EC1E  F00E         	call	_ENVIA_LCD_CMD
  2139   001B44  0012               	return		;funcret
  2140   001B46                     __end_of_LCD_CONFIG:
  2141                           	callstack 0
  2142                           
  2143 ;; *************** function _CURSOR_ONOFF *****************
  2144 ;; Defined at:
  2145 ;;		line 62 in file "LCD.c"
  2146 ;; Parameters:    Size  Location     Type
  2147 ;;  estado          1    wreg     unsigned char 
  2148 ;; Auto vars:     Size  Location     Type
  2149 ;;  estado          1    3[COMRAM] unsigned char 
  2150 ;; Return value:  Size  Location     Type
  2151 ;;                  1    wreg      void 
  2152 ;; Registers used:
  2153 ;;		wreg, status,2, status,0, cstack
  2154 ;; Tracked objects:
  2155 ;;		On entry : 0/0
  2156 ;;		On exit  : 0/0
  2157 ;;		Unchanged: 0/0
  2158 ;; Data sizes:     COMRAM   BANK0   BANK1   BANK2   BANK3   BANK4   BANK5   BANK6   BANK7   BANK8   BANK9  BANK10  BANK1
      +1  BANK12  BANK14
  2159 ;;      Params:         0       0       0       0       0       0       0       0       0       0       0       0       
      +0       0       0
  2160 ;;      Locals:         1       0       0       0       0       0       0       0       0       0       0       0       
      +0       0       0
  2161 ;;      Temps:          0       0       0       0       0       0       0       0       0       0       0       0       
      +0       0       0
  2162 ;;      Totals:         1       0       0       0       0       0       0       0       0       0       0       0       
      +0       0       0
  2163 ;;Total ram usage:        1 bytes
  2164 ;; Hardware stack levels used: 1
  2165 ;; Hardware stack levels required when called: 1
  2166 ;; This function calls:
  2167 ;;		_ENVIA_LCD_CMD
  2168 ;; This function is called by:
  2169 ;;		_LCD_INIT
  2170 ;; This function uses a non-reentrant model
  2171 ;;
  2172                           
  2173                           	psect	text5
  2174   001CA0                     __ptext5:
  2175                           	callstack 0
  2176   001CA0                     _CURSOR_ONOFF:
  2177                           	callstack 27
  2178                           
  2179                           ;incstack = 0
  2180                           ;CURSOR_ONOFF@estado stored from wreg
  2181   001CA0  6E04               	movwf	CURSOR_ONOFF@estado^0,c
  2182   001CA2                     
  2183                           ;LCD.c: 62: void CURSOR_ONOFF(unsigned char estado);LCD.c: 63: {;LCD.c: 64:  if(estado =
      +                          = 0) ENVIA_LCD_CMD(0x0E);
  2184   001CA2  5004               	movf	CURSOR_ONOFF@estado^0,w,c
  2185   001CA4  A4D8               	btfss	status,2,c
  2186   001CA6  EF57  F00E         	goto	u21
  2187   001CAA  EF59  F00E         	goto	u20
  2188   001CAE                     u21:
  2189   001CAE  EF5C  F00E         	goto	l1064
  2190   001CB2                     u20:
  2191   001CB2  0E0E               	movlw	14
  2192   001CB4  EC1E  F00E         	call	_ENVIA_LCD_CMD
  2193   001CB8                     l1064:
  2194                           
  2195                           ;LCD.c: 65:  if(estado == 1) ENVIA_LCD_CMD(0x0C);
  2196   001CB8  0404               	decf	CURSOR_ONOFF@estado^0,w,c
  2197   001CBA  A4D8               	btfss	status,2,c
  2198   001CBC  EF62  F00E         	goto	u31
  2199   001CC0  EF64  F00E         	goto	u30
  2200   001CC4                     u31:
  2201   001CC4  EF67  F00E         	goto	l62
  2202   001CC8                     u30:
  2203   001CC8  0E0C               	movlw	12
  2204   001CCA  EC1E  F00E         	call	_ENVIA_LCD_CMD
  2205   001CCE                     l62:
  2206   001CCE  0012               	return		;funcret
  2207   001CD0                     __end_of_CURSOR_ONOFF:
  2208                           	callstack 0
  2209                           
  2210 ;; *************** function _CURSOR_HOME *****************
  2211 ;; Defined at:
  2212 ;;		line 37 in file "LCD.c"
  2213 ;; Parameters:    Size  Location     Type
  2214 ;;		None
  2215 ;; Auto vars:     Size  Location     Type
  2216 ;;		None
  2217 ;; Return value:  Size  Location     Type
  2218 ;;                  1    wreg      void 
  2219 ;; Registers used:
  2220 ;;		wreg, status,2, status,0, cstack
  2221 ;; Tracked objects:
  2222 ;;		On entry : 0/0
  2223 ;;		On exit  : 0/0
  2224 ;;		Unchanged: 0/0
  2225 ;; Data sizes:     COMRAM   BANK0   BANK1   BANK2   BANK3   BANK4   BANK5   BANK6   BANK7   BANK8   BANK9  BANK10  BANK1
      +1  BANK12  BANK14
  2226 ;;      Params:         0       0       0       0       0       0       0       0       0       0       0       0       
      +0       0       0
  2227 ;;      Locals:         0       0       0       0       0       0       0       0       0       0       0       0       
      +0       0       0
  2228 ;;      Temps:          0       0       0       0       0       0       0       0       0       0       0       0       
      +0       0       0
  2229 ;;      Totals:         0       0       0       0       0       0       0       0       0       0       0       0       
      +0       0       0
  2230 ;;Total ram usage:        0 bytes
  2231 ;; Hardware stack levels used: 1
  2232 ;; Hardware stack levels required when called: 1
  2233 ;; This function calls:
  2234 ;;		_ENVIA_LCD_CMD
  2235 ;; This function is called by:
  2236 ;;		_LCD_INIT
  2237 ;; This function uses a non-reentrant model
  2238 ;;
  2239                           
  2240                           	psect	text6
  2241   001D1C                     __ptext6:
  2242                           	callstack 0
  2243   001D1C                     _CURSOR_HOME:
  2244                           	callstack 27
  2245   001D1C                     
  2246                           ;LCD.c: 39:  ENVIA_LCD_CMD(0x02);
  2247   001D1C  0E02               	movlw	2
  2248   001D1E  EC1E  F00E         	call	_ENVIA_LCD_CMD
  2249   001D22  0012               	return		;funcret
  2250   001D24                     __end_of_CURSOR_HOME:
  2251                           	callstack 0
  2252                           
  2253 ;; *************** function _BORRAR_LCD *****************
  2254 ;; Defined at:
  2255 ;;		line 104 in file "LCD.c"
  2256 ;; Parameters:    Size  Location     Type
  2257 ;;		None
  2258 ;; Auto vars:     Size  Location     Type
  2259 ;;		None
  2260 ;; Return value:  Size  Location     Type
  2261 ;;                  1    wreg      void 
  2262 ;; Registers used:
  2263 ;;		wreg, status,2, status,0, cstack
  2264 ;; Tracked objects:
  2265 ;;		On entry : 0/0
  2266 ;;		On exit  : 0/0
  2267 ;;		Unchanged: 0/0
  2268 ;; Data sizes:     COMRAM   BANK0   BANK1   BANK2   BANK3   BANK4   BANK5   BANK6   BANK7   BANK8   BANK9  BANK10  BANK1
      +1  BANK12  BANK14
  2269 ;;      Params:         0       0       0       0       0       0       0       0       0       0       0       0       
      +0       0       0
  2270 ;;      Locals:         0       0       0       0       0       0       0       0       0       0       0       0       
      +0       0       0
  2271 ;;      Temps:          0       0       0       0       0       0       0       0       0       0       0       0       
      +0       0       0
  2272 ;;      Totals:         0       0       0       0       0       0       0       0       0       0       0       0       
      +0       0       0
  2273 ;;Total ram usage:        0 bytes
  2274 ;; Hardware stack levels used: 1
  2275 ;; This function calls:
  2276 ;;		_ENVIA_LCD_CMD
  2277 ;; This function is called by:
  2278 ;;		_LCD_INIT
  2279 ;;		_main
  2280 ;; This function uses a non-reentrant model
  2281 ;;
  2282                           
  2283                           	psect	text7
  2284   001D24                     __ptext7:
  2285                           	callstack 0
  2286   001D24                     _BORRAR_LCD:
  2287                           	callstack 28
  2288   001D24                     
  2289                           ;LCD.c: 106:  ENVIA_LCD_CMD(0x01);
  2290   001D24  0E01               	movlw	1
  2291   001D26  EC1E  F00E         	call	_ENVIA_LCD_CMD
  2292   001D2A  0012               	return		;funcret
  2293   001D2C                     __end_of_BORRAR_LCD:
  2294                           	callstack 0
  2295                           
  2296 ;; *************** function ___xxtofl *****************
  2297 ;; Defined at:
  2298 ;;		line 10 in file "C:\Program Files\Microchip\xc8\v3.10\pic\sources\c99\common\xxtofl.c"
  2299 ;; Parameters:    Size  Location     Type
  2300 ;;  sign            1    wreg     unsigned char 
  2301 ;;  val             4    4[COMRAM] long 
  2302 ;; Auto vars:     Size  Location     Type
  2303 ;;  sign            1   12[COMRAM] unsigned char 
  2304 ;;  arg             4   14[COMRAM] unsigned long 
  2305 ;;  exp             1   13[COMRAM] unsigned char 
  2306 ;; Return value:  Size  Location     Type
  2307 ;;                  4    4[COMRAM] unsigned char 
  2308 ;; Registers used:
  2309 ;;		wreg, status,2, status,0
  2310 ;; Tracked objects:
  2311 ;;		On entry : 0/0
  2312 ;;		On exit  : 0/0
  2313 ;;		Unchanged: 0/0
  2314 ;; Data sizes:     COMRAM   BANK0   BANK1   BANK2   BANK3   BANK4   BANK5   BANK6   BANK7   BANK8   BANK9  BANK10  BANK1
      +1  BANK12  BANK14
  2315 ;;      Params:         4       0       0       0       0       0       0       0       0       0       0       0       
      +0       0       0
  2316 ;;      Locals:         6       0       0       0       0       0       0       0       0       0       0       0       
      +0       0       0
  2317 ;;      Temps:          4       0       0       0       0       0       0       0       0       0       0       0       
      +0       0       0
  2318 ;;      Totals:        14       0       0       0       0       0       0       0       0       0       0       0       
      +0       0       0
  2319 ;;Total ram usage:       14 bytes
  2320 ;; Hardware stack levels used: 1
  2321 ;; This function calls:
  2322 ;;		Nothing
  2323 ;; This function is called by:
  2324 ;;		_main
  2325 ;; This function uses a non-reentrant model
  2326 ;;
  2327                           
  2328                           	psect	text8
  2329   0013BC                     __ptext8:
  2330                           	callstack 0
  2331   0013BC                     ___xxtofl:
  2332                           	callstack 30
  2333                           
  2334                           ;incstack = 0
  2335                           ;___xxtofl@sign stored from wreg
  2336   0013BC  6E0D               	movwf	___xxtofl@sign^0,c
  2337   0013BE  500D               	movf	___xxtofl@sign^0,w,c
  2338   0013C0  B4D8               	btfsc	status,2,c
  2339   0013C2  EFE5  F009         	goto	u1091
  2340   0013C6  EFE7  F009         	goto	u1090
  2341   0013CA                     u1091:
  2342   0013CA  EF09  F00A         	goto	l966
  2343   0013CE                     u1090:
  2344   0013CE  BE08               	btfsc	(___xxtofl@val+3)^0,7,c
  2345   0013D0  EFEE  F009         	goto	u1100
  2346   0013D4  EFEC  F009         	goto	u1101
  2347   0013D8                     u1101:
  2348   0013D8  EF09  F00A         	goto	l966
  2349   0013DC                     u1100:
  2350   0013DC  C005  F009         	movff	___xxtofl@val,??___xxtofl
  2351   0013E0  C006  F00A         	movff	___xxtofl@val+1,??___xxtofl+1
  2352   0013E4  C007  F00B         	movff	___xxtofl@val+2,??___xxtofl+2
  2353   0013E8  C008  F00C         	movff	___xxtofl@val+3,??___xxtofl+3
  2354   0013EC  1E09               	comf	??___xxtofl^0,f,c
  2355   0013EE  1E0A               	comf	(??___xxtofl+1)^0,f,c
  2356   0013F0  1E0B               	comf	(??___xxtofl+2)^0,f,c
  2357   0013F2  1E0C               	comf	(??___xxtofl+3)^0,f,c
  2358   0013F4  2A09               	incf	??___xxtofl^0,f,c
  2359   0013F6  0E00               	movlw	0
  2360   0013F8  220A               	addwfc	(??___xxtofl+1)^0,f,c
  2361   0013FA  220B               	addwfc	(??___xxtofl+2)^0,f,c
  2362   0013FC  220C               	addwfc	(??___xxtofl+3)^0,f,c
  2363   0013FE  C009  F00F         	movff	??___xxtofl,___xxtofl@arg
  2364   001402  C00A  F010         	movff	??___xxtofl+1,___xxtofl@arg+1
  2365   001406  C00B  F011         	movff	??___xxtofl+2,___xxtofl@arg+2
  2366   00140A  C00C  F012         	movff	??___xxtofl+3,___xxtofl@arg+3
  2367   00140E  EF11  F00A         	goto	l1856
  2368   001412                     l966:
  2369   001412  C005  F00F         	movff	___xxtofl@val,___xxtofl@arg
  2370   001416  C006  F010         	movff	___xxtofl@val+1,___xxtofl@arg+1
  2371   00141A  C007  F011         	movff	___xxtofl@val+2,___xxtofl@arg+2
  2372   00141E  C008  F012         	movff	___xxtofl@val+3,___xxtofl@arg+3
  2373   001422                     l1856:
  2374   001422  5005               	movf	___xxtofl@val^0,w,c
  2375   001424  1006               	iorwf	(___xxtofl@val+1)^0,w,c
  2376   001426  1007               	iorwf	(___xxtofl@val+2)^0,w,c
  2377   001428  1008               	iorwf	(___xxtofl@val+3)^0,w,c
  2378   00142A  A4D8               	btfss	status,2,c
  2379   00142C  EF1A  F00A         	goto	u1111
  2380   001430  EF1C  F00A         	goto	u1110
  2381   001434                     u1111:
  2382   001434  EF26  F00A         	goto	l1862
  2383   001438                     u1110:
  2384   001438  0E00               	movlw	0
  2385   00143A  6E05               	movwf	?___xxtofl^0,c
  2386   00143C  0E00               	movlw	0
  2387   00143E  6E06               	movwf	(?___xxtofl+1)^0,c
  2388   001440  0E00               	movlw	0
  2389   001442  6E07               	movwf	(?___xxtofl+2)^0,c
  2390   001444  0E00               	movlw	0
  2391   001446  6E08               	movwf	(?___xxtofl+3)^0,c
  2392   001448  EFB7  F00A         	goto	l969
  2393   00144C                     l1862:
  2394   00144C  0E96               	movlw	150
  2395   00144E  6E0E               	movwf	___xxtofl@exp^0,c
  2396   001450  EF30  F00A         	goto	l1866
  2397   001454                     l1864:
  2398   001454  2A0E               	incf	___xxtofl@exp^0,f,c
  2399   001456  90D8               	bcf	status,0,c
  2400   001458  3212               	rrcf	(___xxtofl@arg+3)^0,f,c
  2401   00145A  3211               	rrcf	(___xxtofl@arg+2)^0,f,c
  2402   00145C  3210               	rrcf	(___xxtofl@arg+1)^0,f,c
  2403   00145E  320F               	rrcf	___xxtofl@arg^0,f,c
  2404   001460                     l1866:
  2405   001460  0E00               	movlw	0
  2406   001462  140F               	andwf	___xxtofl@arg^0,w,c
  2407   001464  6E09               	movwf	??___xxtofl^0,c
  2408   001466  0E00               	movlw	0
  2409   001468  1410               	andwf	(___xxtofl@arg+1)^0,w,c
  2410   00146A  6E0A               	movwf	(??___xxtofl+1)^0,c
  2411   00146C  0E00               	movlw	0
  2412   00146E  1411               	andwf	(___xxtofl@arg+2)^0,w,c
  2413   001470  6E0B               	movwf	(??___xxtofl+2)^0,c
  2414   001472  0EFE               	movlw	254
  2415   001474  1412               	andwf	(___xxtofl@arg+3)^0,w,c
  2416   001476  6E0C               	movwf	(??___xxtofl+3)^0,c
  2417   001478  5009               	movf	??___xxtofl^0,w,c
  2418   00147A  100A               	iorwf	(??___xxtofl+1)^0,w,c
  2419   00147C  100B               	iorwf	(??___xxtofl+2)^0,w,c
  2420   00147E  100C               	iorwf	(??___xxtofl+3)^0,w,c
  2421   001480  A4D8               	btfss	status,2,c
  2422   001482  EF45  F00A         	goto	u1121
  2423   001486  EF47  F00A         	goto	u1120
  2424   00148A                     u1121:
  2425   00148A  EF2A  F00A         	goto	l1864
  2426   00148E                     u1120:
  2427   00148E  EF55  F00A         	goto	l973
  2428   001492                     l1868:
  2429   001492  2A0E               	incf	___xxtofl@exp^0,f,c
  2430   001494  0E01               	movlw	1
  2431   001496  260F               	addwf	___xxtofl@arg^0,f,c
  2432   001498  0E00               	movlw	0
  2433   00149A  2210               	addwfc	(___xxtofl@arg+1)^0,f,c
  2434   00149C  2211               	addwfc	(___xxtofl@arg+2)^0,f,c
  2435   00149E  2212               	addwfc	(___xxtofl@arg+3)^0,f,c
  2436   0014A0  90D8               	bcf	status,0,c
  2437   0014A2  3212               	rrcf	(___xxtofl@arg+3)^0,f,c
  2438   0014A4  3211               	rrcf	(___xxtofl@arg+2)^0,f,c
  2439   0014A6  3210               	rrcf	(___xxtofl@arg+1)^0,f,c
  2440   0014A8  320F               	rrcf	___xxtofl@arg^0,f,c
  2441   0014AA                     l973:
  2442   0014AA  0E00               	movlw	0
  2443   0014AC  140F               	andwf	___xxtofl@arg^0,w,c
  2444   0014AE  6E09               	movwf	??___xxtofl^0,c
  2445   0014B0  0E00               	movlw	0
  2446   0014B2  1410               	andwf	(___xxtofl@arg+1)^0,w,c
  2447   0014B4  6E0A               	movwf	(??___xxtofl+1)^0,c
  2448   0014B6  0E00               	movlw	0
  2449   0014B8  1411               	andwf	(___xxtofl@arg+2)^0,w,c
  2450   0014BA  6E0B               	movwf	(??___xxtofl+2)^0,c
  2451   0014BC  0EFF               	movlw	255
  2452   0014BE  1412               	andwf	(___xxtofl@arg+3)^0,w,c
  2453   0014C0  6E0C               	movwf	(??___xxtofl+3)^0,c
  2454   0014C2  5009               	movf	??___xxtofl^0,w,c
  2455   0014C4  100A               	iorwf	(??___xxtofl+1)^0,w,c
  2456   0014C6  100B               	iorwf	(??___xxtofl+2)^0,w,c
  2457   0014C8  100C               	iorwf	(??___xxtofl+3)^0,w,c
  2458   0014CA  A4D8               	btfss	status,2,c
  2459   0014CC  EF6A  F00A         	goto	u1131
  2460   0014D0  EF6C  F00A         	goto	u1130
  2461   0014D4                     u1131:
  2462   0014D4  EF49  F00A         	goto	l1868
  2463   0014D8                     u1130:
  2464   0014D8  EF74  F00A         	goto	l1876
  2465   0014DC                     l1874:
  2466   0014DC  060E               	decf	___xxtofl@exp^0,f,c
  2467   0014DE  90D8               	bcf	status,0,c
  2468   0014E0  360F               	rlcf	___xxtofl@arg^0,f,c
  2469   0014E2  3610               	rlcf	(___xxtofl@arg+1)^0,f,c
  2470   0014E4  3611               	rlcf	(___xxtofl@arg+2)^0,f,c
  2471   0014E6  3612               	rlcf	(___xxtofl@arg+3)^0,f,c
  2472   0014E8                     l1876:
  2473   0014E8  BE11               	btfsc	(___xxtofl@arg+2)^0,7,c
  2474   0014EA  EF79  F00A         	goto	u1141
  2475   0014EE  EF7B  F00A         	goto	u1140
  2476   0014F2                     u1141:
  2477   0014F2  EF83  F00A         	goto	l980
  2478   0014F6                     u1140:
  2479   0014F6  0E02               	movlw	2
  2480   0014F8  600E               	cpfslt	___xxtofl@exp^0,c
  2481   0014FA  EF81  F00A         	goto	u1151
  2482   0014FE  EF83  F00A         	goto	u1150
  2483   001502                     u1151:
  2484   001502  EF6E  F00A         	goto	l1874
  2485   001506                     u1150:
  2486   001506                     l980:
  2487   001506  B00E               	btfsc	___xxtofl@exp^0,0,c
  2488   001508  EF88  F00A         	goto	u1161
  2489   00150C  EF8A  F00A         	goto	u1160
  2490   001510                     u1161:
  2491   001510  EF8B  F00A         	goto	l1882
  2492   001514                     u1160:
  2493   001514  9E11               	bcf	(___xxtofl@arg+2)^0,7,c
  2494   001516                     l1882:
  2495   001516  90D8               	bcf	status,0,c
  2496   001518  320E               	rrcf	___xxtofl@exp^0,f,c
  2497   00151A  C00E  F009         	movff	___xxtofl@exp,??___xxtofl
  2498   00151E  6A0A               	clrf	(??___xxtofl+1)^0,c
  2499   001520  6A0B               	clrf	(??___xxtofl+2)^0,c
  2500   001522  6A0C               	clrf	(??___xxtofl+3)^0,c
  2501   001524  C009  F00C         	movff	??___xxtofl,??___xxtofl+3
  2502   001528  6A0B               	clrf	(??___xxtofl+2)^0,c
  2503   00152A  6A0A               	clrf	(??___xxtofl+1)^0,c
  2504   00152C  6A09               	clrf	??___xxtofl^0,c
  2505   00152E  5009               	movf	??___xxtofl^0,w,c
  2506   001530  120F               	iorwf	___xxtofl@arg^0,f,c
  2507   001532  500A               	movf	(??___xxtofl+1)^0,w,c
  2508   001534  1210               	iorwf	(___xxtofl@arg+1)^0,f,c
  2509   001536  500B               	movf	(??___xxtofl+2)^0,w,c
  2510   001538  1211               	iorwf	(___xxtofl@arg+2)^0,f,c
  2511   00153A  500C               	movf	(??___xxtofl+3)^0,w,c
  2512   00153C  1212               	iorwf	(___xxtofl@arg+3)^0,f,c
  2513   00153E  500D               	movf	___xxtofl@sign^0,w,c
  2514   001540  B4D8               	btfsc	status,2,c
  2515   001542  EFA5  F00A         	goto	u1171
  2516   001546  EFA7  F00A         	goto	u1170
  2517   00154A                     u1171:
  2518   00154A  EFAF  F00A         	goto	l1892
  2519   00154E                     u1170:
  2520   00154E  BE08               	btfsc	(___xxtofl@val+3)^0,7,c
  2521   001550  EFAE  F00A         	goto	u1180
  2522   001554  EFAC  F00A         	goto	u1181
  2523   001558                     u1181:
  2524   001558  EFAF  F00A         	goto	l1892
  2525   00155C                     u1180:
  2526   00155C  8E12               	bsf	(___xxtofl@arg+3)^0,7,c
  2527   00155E                     l1892:
  2528   00155E  C00F  F005         	movff	___xxtofl@arg,?___xxtofl
  2529   001562  C010  F006         	movff	___xxtofl@arg+1,?___xxtofl+1
  2530   001566  C011  F007         	movff	___xxtofl@arg+2,?___xxtofl+2
  2531   00156A  C012  F008         	movff	___xxtofl@arg+3,?___xxtofl+3
  2532   00156E                     l969:
  2533   00156E  0012               	return		;funcret
  2534   001570                     __end_of___xxtofl:
  2535                           	callstack 0
  2536                           
  2537 ;; *************** function ___fltol *****************
  2538 ;; Defined at:
  2539 ;;		line 43 in file "C:\Program Files\Microchip\xc8\v3.10\pic\sources\c99\common\fltol.c"
  2540 ;; Parameters:    Size  Location     Type
  2541 ;;  f1              4   43[COMRAM] unsigned char 
  2542 ;; Auto vars:     Size  Location     Type
  2543 ;;  exp1            1   52[COMRAM] unsigned char 
  2544 ;;  sign1           1   51[COMRAM] unsigned char 
  2545 ;; Return value:  Size  Location     Type
  2546 ;;                  4   43[COMRAM] long 
  2547 ;; Registers used:
  2548 ;;		wreg, status,2, status,0
  2549 ;; Tracked objects:
  2550 ;;		On entry : 0/0
  2551 ;;		On exit  : 0/0
  2552 ;;		Unchanged: 0/0
  2553 ;; Data sizes:     COMRAM   BANK0   BANK1   BANK2   BANK3   BANK4   BANK5   BANK6   BANK7   BANK8   BANK9  BANK10  BANK1
      +1  BANK12  BANK14
  2554 ;;      Params:         4       0       0       0       0       0       0       0       0       0       0       0       
      +0       0       0
  2555 ;;      Locals:         2       0       0       0       0       0       0       0       0       0       0       0       
      +0       0       0
  2556 ;;      Temps:          4       0       0       0       0       0       0       0       0       0       0       0       
      +0       0       0
  2557 ;;      Totals:        10       0       0       0       0       0       0       0       0       0       0       0       
      +0       0       0
  2558 ;;Total ram usage:       10 bytes
  2559 ;; Hardware stack levels used: 1
  2560 ;; This function calls:
  2561 ;;		Nothing
  2562 ;; This function is called by:
  2563 ;;		_main
  2564 ;; This function uses a non-reentrant model
  2565 ;;
  2566                           
  2567                           	psect	text9
  2568   00182E                     __ptext9:
  2569                           	callstack 0
  2570   00182E                     ___fltol:
  2571                           	callstack 30
  2572   00182E  342E               	rlcf	(___fltol@f1+2)^0,w,c
  2573   001830  342F               	rlcf	(___fltol@f1+3)^0,w,c
  2574   001832  6E35               	movwf	___fltol@exp1^0,c
  2575   001834  5035               	movf	___fltol@exp1^0,w,c
  2576   001836  A4D8               	btfss	status,2,c
  2577   001838  EF20  F00C         	goto	u1021
  2578   00183C  EF22  F00C         	goto	u1020
  2579   001840                     u1021:
  2580   001840  EF2C  F00C         	goto	l1812
  2581   001844                     u1020:
  2582   001844                     l1808:
  2583   001844  0E00               	movlw	0
  2584   001846  6E2C               	movwf	?___fltol^0,c
  2585   001848  0E00               	movlw	0
  2586   00184A  6E2D               	movwf	(?___fltol+1)^0,c
  2587   00184C  0E00               	movlw	0
  2588   00184E  6E2E               	movwf	(?___fltol+2)^0,c
  2589   001850  0E00               	movlw	0
  2590   001852  6E2F               	movwf	(?___fltol+3)^0,c
  2591   001854  EF99  F00C         	goto	l608
  2592   001858                     l1812:
  2593   001858  C02C  F030         	movff	___fltol@f1,??___fltol
  2594   00185C  C02D  F031         	movff	___fltol@f1+1,??___fltol+1
  2595   001860  C02E  F032         	movff	___fltol@f1+2,??___fltol+2
  2596   001864  C02F  F033         	movff	___fltol@f1+3,??___fltol+3
  2597   001868  0E20               	movlw	32
  2598   00186A  EF3C  F00C         	goto	u1030
  2599   00186E                     u1035:
  2600   00186E  90D8               	bcf	status,0,c
  2601   001870  3233               	rrcf	(??___fltol+3)^0,f,c
  2602   001872  3232               	rrcf	(??___fltol+2)^0,f,c
  2603   001874  3231               	rrcf	(??___fltol+1)^0,f,c
  2604   001876  3230               	rrcf	??___fltol^0,f,c
  2605   001878                     u1030:
  2606   001878  2EE8               	decfsz	wreg,f,c
  2607   00187A  EF37  F00C         	goto	u1035
  2608   00187E  5030               	movf	??___fltol^0,w,c
  2609   001880  6E34               	movwf	___fltol@sign1^0,c
  2610   001882  8E2E               	bsf	(___fltol@f1+2)^0,7,c
  2611   001884  0EFF               	movlw	255
  2612   001886  162C               	andwf	___fltol@f1^0,f,c
  2613   001888  0EFF               	movlw	255
  2614   00188A  162D               	andwf	(___fltol@f1+1)^0,f,c
  2615   00188C  0EFF               	movlw	255
  2616   00188E  162E               	andwf	(___fltol@f1+2)^0,f,c
  2617   001890  0E00               	movlw	0
  2618   001892  162F               	andwf	(___fltol@f1+3)^0,f,c
  2619   001894  0E96               	movlw	150
  2620   001896  5E35               	subwf	___fltol@exp1^0,f,c
  2621   001898  BE35               	btfsc	___fltol@exp1^0,7,c
  2622   00189A  EF53  F00C         	goto	u1040
  2623   00189E  EF51  F00C         	goto	u1041
  2624   0018A2                     u1041:
  2625   0018A2  EF69  F00C         	goto	l1832
  2626   0018A6                     u1040:
  2627   0018A6  5035               	movf	___fltol@exp1^0,w,c
  2628   0018A8  0A80               	xorlw	128
  2629   0018AA  0F97               	addlw	151
  2630   0018AC  B0D8               	btfsc	status,0,c
  2631   0018AE  EF5B  F00C         	goto	u1051
  2632   0018B2  EF5D  F00C         	goto	u1050
  2633   0018B6                     u1051:
  2634   0018B6  EF5F  F00C         	goto	l1828
  2635   0018BA                     u1050:
  2636   0018BA  EF22  F00C         	goto	l1808
  2637   0018BE                     l1828:
  2638   0018BE  90D8               	bcf	status,0,c
  2639   0018C0  322F               	rrcf	(___fltol@f1+3)^0,f,c
  2640   0018C2  322E               	rrcf	(___fltol@f1+2)^0,f,c
  2641   0018C4  322D               	rrcf	(___fltol@f1+1)^0,f,c
  2642   0018C6  322C               	rrcf	___fltol@f1^0,f,c
  2643   0018C8  3E35               	incfsz	___fltol@exp1^0,f,c
  2644   0018CA  EF5F  F00C         	goto	l1828
  2645   0018CE  EF81  F00C         	goto	l1842
  2646   0018D2                     l1832:
  2647   0018D2  0E1F               	movlw	31
  2648   0018D4  6435               	cpfsgt	___fltol@exp1^0,c
  2649   0018D6  EF6F  F00C         	goto	u1061
  2650   0018DA  EF71  F00C         	goto	u1060
  2651   0018DE                     u1061:
  2652   0018DE  EF79  F00C         	goto	l1840
  2653   0018E2                     u1060:
  2654   0018E2  EF22  F00C         	goto	l1808
  2655   0018E6                     l1838:
  2656   0018E6  90D8               	bcf	status,0,c
  2657   0018E8  362C               	rlcf	___fltol@f1^0,f,c
  2658   0018EA  362D               	rlcf	(___fltol@f1+1)^0,f,c
  2659   0018EC  362E               	rlcf	(___fltol@f1+2)^0,f,c
  2660   0018EE  362F               	rlcf	(___fltol@f1+3)^0,f,c
  2661   0018F0  0635               	decf	___fltol@exp1^0,f,c
  2662   0018F2                     l1840:
  2663   0018F2  5035               	movf	___fltol@exp1^0,w,c
  2664   0018F4  A4D8               	btfss	status,2,c
  2665   0018F6  EF7F  F00C         	goto	u1071
  2666   0018FA  EF81  F00C         	goto	u1070
  2667   0018FE                     u1071:
  2668   0018FE  EF73  F00C         	goto	l1838
  2669   001902                     u1070:
  2670   001902                     l1842:
  2671   001902  5034               	movf	___fltol@sign1^0,w,c
  2672   001904  B4D8               	btfsc	status,2,c
  2673   001906  EF87  F00C         	goto	u1081
  2674   00190A  EF89  F00C         	goto	u1080
  2675   00190E                     u1081:
  2676   00190E  EF91  F00C         	goto	l1846
  2677   001912                     u1080:
  2678   001912  1E2F               	comf	(___fltol@f1+3)^0,f,c
  2679   001914  1E2E               	comf	(___fltol@f1+2)^0,f,c
  2680   001916  1E2D               	comf	(___fltol@f1+1)^0,f,c
  2681   001918  6C2C               	negf	___fltol@f1^0,c
  2682   00191A  0E00               	movlw	0
  2683   00191C  222D               	addwfc	(___fltol@f1+1)^0,f,c
  2684   00191E  222E               	addwfc	(___fltol@f1+2)^0,f,c
  2685   001920  222F               	addwfc	(___fltol@f1+3)^0,f,c
  2686   001922                     l1846:
  2687   001922  C02C  F02C         	movff	___fltol@f1,?___fltol
  2688   001926  C02D  F02D         	movff	___fltol@f1+1,?___fltol+1
  2689   00192A  C02E  F02E         	movff	___fltol@f1+2,?___fltol+2
  2690   00192E  C02F  F02F         	movff	___fltol@f1+3,?___fltol+3
  2691   001932                     l608:
  2692   001932  0012               	return		;funcret
  2693   001934                     __end_of___fltol:
  2694                           	callstack 0
  2695                           
  2696 ;; *************** function ___fldiv *****************
  2697 ;; Defined at:
  2698 ;;		line 11 in file "C:\Program Files\Microchip\xc8\v3.10\pic\sources\c99\common\sprcdiv.c"
  2699 ;; Parameters:    Size  Location     Type
  2700 ;;  b               4   18[COMRAM] long 
  2701 ;;  a               4   22[COMRAM] long 
  2702 ;; Auto vars:     Size  Location     Type
  2703 ;;  grs             4   37[COMRAM] unsigned long 
  2704 ;;  rem             4   30[COMRAM] unsigned long 
  2705 ;;  new_exp         2   35[COMRAM] short 
  2706 ;;  aexp            1   42[COMRAM] unsigned char 
  2707 ;;  bexp            1   41[COMRAM] unsigned char 
  2708 ;;  sign            1   34[COMRAM] unsigned char 
  2709 ;; Return value:  Size  Location     Type
  2710 ;;                  4   18[COMRAM] unsigned char 
  2711 ;; Registers used:
  2712 ;;		wreg, status,2, status,0
  2713 ;; Tracked objects:
  2714 ;;		On entry : 0/0
  2715 ;;		On exit  : 0/0
  2716 ;;		Unchanged: 0/0
  2717 ;; Data sizes:     COMRAM   BANK0   BANK1   BANK2   BANK3   BANK4   BANK5   BANK6   BANK7   BANK8   BANK9  BANK10  BANK1
      +1  BANK12  BANK14
  2718 ;;      Params:         8       0       0       0       0       0       0       0       0       0       0       0       
      +0       0       0
  2719 ;;      Locals:        13       0       0       0       0       0       0       0       0       0       0       0       
      +0       0       0
  2720 ;;      Temps:          4       0       0       0       0       0       0       0       0       0       0       0       
      +0       0       0
  2721 ;;      Totals:        25       0       0       0       0       0       0       0       0       0       0       0       
      +0       0       0
  2722 ;;Total ram usage:       25 bytes
  2723 ;; Hardware stack levels used: 1
  2724 ;; This function calls:
  2725 ;;		Nothing
  2726 ;; This function is called by:
  2727 ;;		_main
  2728 ;; This function uses a non-reentrant model
  2729 ;;
  2730                           
  2731                           	psect	text10
  2732   00102E                     __ptext10:
  2733                           	callstack 0
  2734   00102E                     ___fldiv:
  2735                           	callstack 30
  2736   00102E  5016               	movf	(___fldiv@b+3)^0,w,c
  2737   001030  0B80               	andlw	128
  2738   001032  6E23               	movwf	___fldiv@sign^0,c
  2739   001034  5016               	movf	(___fldiv@b+3)^0,w,c
  2740   001036  2416               	addwf	(___fldiv@b+3)^0,w,c
  2741   001038  6E2A               	movwf	___fldiv@bexp^0,c
  2742   00103A  AE15               	btfss	(___fldiv@b+2)^0,7,c
  2743   00103C  EF22  F008         	goto	u791
  2744   001040  EF24  F008         	goto	u790
  2745   001044                     u791:
  2746   001044  EF25  F008         	goto	l1676
  2747   001048                     u790:
  2748   001048  802A               	bsf	___fldiv@bexp^0,0,c
  2749   00104A                     l1676:
  2750   00104A  502A               	movf	___fldiv@bexp^0,w,c
  2751   00104C  B4D8               	btfsc	status,2,c
  2752   00104E  EF2B  F008         	goto	u801
  2753   001052  EF2D  F008         	goto	u800
  2754   001056                     u801:
  2755   001056  EF41  F008         	goto	l1686
  2756   00105A                     u800:
  2757   00105A  282A               	incf	___fldiv@bexp^0,w,c
  2758   00105C  A4D8               	btfss	status,2,c
  2759   00105E  EF33  F008         	goto	u811
  2760   001062  EF35  F008         	goto	u810
  2761   001066                     u811:
  2762   001066  EF3D  F008         	goto	l1682
  2763   00106A                     u810:
  2764   00106A  0E00               	movlw	0
  2765   00106C  6E13               	movwf	___fldiv@b^0,c
  2766   00106E  0E00               	movlw	0
  2767   001070  6E14               	movwf	(___fldiv@b+1)^0,c
  2768   001072  0E00               	movlw	0
  2769   001074  6E15               	movwf	(___fldiv@b+2)^0,c
  2770   001076  0E00               	movlw	0
  2771   001078  6E16               	movwf	(___fldiv@b+3)^0,c
  2772   00107A                     l1682:
  2773   00107A  8E15               	bsf	(___fldiv@b+2)^0,7,c
  2774   00107C  6A16               	clrf	(___fldiv@b+3)^0,c
  2775   00107E  EF49  F008         	goto	l1688
  2776   001082                     l1686:
  2777   001082  0E00               	movlw	0
  2778   001084  6E13               	movwf	___fldiv@b^0,c
  2779   001086  0E00               	movlw	0
  2780   001088  6E14               	movwf	(___fldiv@b+1)^0,c
  2781   00108A  0E00               	movlw	0
  2782   00108C  6E15               	movwf	(___fldiv@b+2)^0,c
  2783   00108E  0E00               	movlw	0
  2784   001090  6E16               	movwf	(___fldiv@b+3)^0,c
  2785   001092                     l1688:
  2786   001092  501A               	movf	(___fldiv@a+3)^0,w,c
  2787   001094  0B80               	andlw	128
  2788   001096  1A23               	xorwf	___fldiv@sign^0,f,c
  2789   001098  501A               	movf	(___fldiv@a+3)^0,w,c
  2790   00109A  241A               	addwf	(___fldiv@a+3)^0,w,c
  2791   00109C  6E2B               	movwf	___fldiv@aexp^0,c
  2792   00109E  AE19               	btfss	(___fldiv@a+2)^0,7,c
  2793   0010A0  EF54  F008         	goto	u821
  2794   0010A4  EF56  F008         	goto	u820
  2795   0010A8                     u821:
  2796   0010A8  EF57  F008         	goto	l1696
  2797   0010AC                     u820:
  2798   0010AC  802B               	bsf	___fldiv@aexp^0,0,c
  2799   0010AE                     l1696:
  2800   0010AE  502B               	movf	___fldiv@aexp^0,w,c
  2801   0010B0  B4D8               	btfsc	status,2,c
  2802   0010B2  EF5D  F008         	goto	u831
  2803   0010B6  EF5F  F008         	goto	u830
  2804   0010BA                     u831:
  2805   0010BA  EF73  F008         	goto	l1706
  2806   0010BE                     u830:
  2807   0010BE  282B               	incf	___fldiv@aexp^0,w,c
  2808   0010C0  A4D8               	btfss	status,2,c
  2809   0010C2  EF65  F008         	goto	u841
  2810   0010C6  EF67  F008         	goto	u840
  2811   0010CA                     u841:
  2812   0010CA  EF6F  F008         	goto	l1702
  2813   0010CE                     u840:
  2814   0010CE  0E00               	movlw	0
  2815   0010D0  6E17               	movwf	___fldiv@a^0,c
  2816   0010D2  0E00               	movlw	0
  2817   0010D4  6E18               	movwf	(___fldiv@a+1)^0,c
  2818   0010D6  0E00               	movlw	0
  2819   0010D8  6E19               	movwf	(___fldiv@a+2)^0,c
  2820   0010DA  0E00               	movlw	0
  2821   0010DC  6E1A               	movwf	(___fldiv@a+3)^0,c
  2822   0010DE                     l1702:
  2823   0010DE  8E19               	bsf	(___fldiv@a+2)^0,7,c
  2824   0010E0  6A1A               	clrf	(___fldiv@a+3)^0,c
  2825   0010E2  EF7B  F008         	goto	l1708
  2826   0010E6                     l1706:
  2827   0010E6  0E00               	movlw	0
  2828   0010E8  6E17               	movwf	___fldiv@a^0,c
  2829   0010EA  0E00               	movlw	0
  2830   0010EC  6E18               	movwf	(___fldiv@a+1)^0,c
  2831   0010EE  0E00               	movlw	0
  2832   0010F0  6E19               	movwf	(___fldiv@a+2)^0,c
  2833   0010F2  0E00               	movlw	0
  2834   0010F4  6E1A               	movwf	(___fldiv@a+3)^0,c
  2835   0010F6                     l1708:
  2836   0010F6  5017               	movf	___fldiv@a^0,w,c
  2837   0010F8  1018               	iorwf	(___fldiv@a+1)^0,w,c
  2838   0010FA  1019               	iorwf	(___fldiv@a+2)^0,w,c
  2839   0010FC  101A               	iorwf	(___fldiv@a+3)^0,w,c
  2840   0010FE  A4D8               	btfss	status,2,c
  2841   001100  EF84  F008         	goto	u851
  2842   001104  EF86  F008         	goto	u850
  2843   001108                     u851:
  2844   001108  EF9E  F008         	goto	l1720
  2845   00110C                     u850:
  2846   00110C  0E00               	movlw	0
  2847   00110E  6E13               	movwf	___fldiv@b^0,c
  2848   001110  0E00               	movlw	0
  2849   001112  6E14               	movwf	(___fldiv@b+1)^0,c
  2850   001114  0E00               	movlw	0
  2851   001116  6E15               	movwf	(___fldiv@b+2)^0,c
  2852   001118  0E00               	movlw	0
  2853   00111A  6E16               	movwf	(___fldiv@b+3)^0,c
  2854   00111C  0E80               	movlw	128
  2855   00111E  1215               	iorwf	(___fldiv@b+2)^0,f,c
  2856   001120  0E7F               	movlw	127
  2857   001122  1216               	iorwf	(___fldiv@b+3)^0,f,c
  2858   001124                     l1714:
  2859   001124  5023               	movf	___fldiv@sign^0,w,c
  2860   001126  1216               	iorwf	(___fldiv@b+3)^0,f,c
  2861   001128  C013  F013         	movff	___fldiv@b,?___fldiv
  2862   00112C  C014  F014         	movff	___fldiv@b+1,?___fldiv+1
  2863   001130  C015  F015         	movff	___fldiv@b+2,?___fldiv+2
  2864   001134  C016  F016         	movff	___fldiv@b+3,?___fldiv+3
  2865   001138  EFDD  F009         	goto	l893
  2866   00113C                     l1720:
  2867   00113C  502A               	movf	___fldiv@bexp^0,w,c
  2868   00113E  A4D8               	btfss	status,2,c
  2869   001140  EFA4  F008         	goto	u861
  2870   001144  EFA6  F008         	goto	u860
  2871   001148                     u861:
  2872   001148  EFB0  F008         	goto	l1728
  2873   00114C                     u860:
  2874   00114C  0E00               	movlw	0
  2875   00114E  6E13               	movwf	?___fldiv^0,c
  2876   001150  0E00               	movlw	0
  2877   001152  6E14               	movwf	(?___fldiv+1)^0,c
  2878   001154  0E00               	movlw	0
  2879   001156  6E15               	movwf	(?___fldiv+2)^0,c
  2880   001158  0E00               	movlw	0
  2881   00115A  6E16               	movwf	(?___fldiv+3)^0,c
  2882   00115C  EFDD  F009         	goto	l893
  2883   001160                     l1728:
  2884   001160  502B               	movf	___fldiv@aexp^0,w,c
  2885   001162  C02A  F01B         	movff	___fldiv@bexp,??___fldiv
  2886   001166  6A1C               	clrf	(??___fldiv+1)^0,c
  2887   001168  5E1B               	subwf	??___fldiv^0,f,c
  2888   00116A  0E00               	movlw	0
  2889   00116C  5A1C               	subwfb	(??___fldiv+1)^0,f,c
  2890   00116E  0E7F               	movlw	127
  2891   001170  241B               	addwf	??___fldiv^0,w,c
  2892   001172  6E24               	movwf	___fldiv@new_exp^0,c
  2893   001174  0E00               	movlw	0
  2894   001176  201C               	addwfc	(??___fldiv+1)^0,w,c
  2895   001178  6E25               	movwf	(___fldiv@new_exp+1)^0,c
  2896   00117A  C013  F01F         	movff	___fldiv@b,___fldiv@rem
  2897   00117E  C014  F020         	movff	___fldiv@b+1,___fldiv@rem+1
  2898   001182  C015  F021         	movff	___fldiv@b+2,___fldiv@rem+2
  2899   001186  C016  F022         	movff	___fldiv@b+3,___fldiv@rem+3
  2900   00118A  0E00               	movlw	0
  2901   00118C  6E13               	movwf	___fldiv@b^0,c
  2902   00118E  0E00               	movlw	0
  2903   001190  6E14               	movwf	(___fldiv@b+1)^0,c
  2904   001192  0E00               	movlw	0
  2905   001194  6E15               	movwf	(___fldiv@b+2)^0,c
  2906   001196  0E00               	movlw	0
  2907   001198  6E16               	movwf	(___fldiv@b+3)^0,c
  2908   00119A  0E00               	movlw	0
  2909   00119C  6E26               	movwf	___fldiv@grs^0,c
  2910   00119E  0E00               	movlw	0
  2911   0011A0  6E27               	movwf	(___fldiv@grs+1)^0,c
  2912   0011A2  0E00               	movlw	0
  2913   0011A4  6E28               	movwf	(___fldiv@grs+2)^0,c
  2914   0011A6  0E00               	movlw	0
  2915   0011A8  6E29               	movwf	(___fldiv@grs+3)^0,c
  2916   0011AA  6A2B               	clrf	___fldiv@aexp^0,c
  2917   0011AC  EF10  F009         	goto	l895
  2918   0011B0                     l1738:
  2919   0011B0  502B               	movf	___fldiv@aexp^0,w,c
  2920   0011B2  B4D8               	btfsc	status,2,c
  2921   0011B4  EFDE  F008         	goto	u871
  2922   0011B8  EFE0  F008         	goto	u870
  2923   0011BC                     u871:
  2924   0011BC  EFF7  F008         	goto	l1746
  2925   0011C0                     u870:
  2926   0011C0  90D8               	bcf	status,0,c
  2927   0011C2  361F               	rlcf	___fldiv@rem^0,f,c
  2928   0011C4  3620               	rlcf	(___fldiv@rem+1)^0,f,c
  2929   0011C6  3621               	rlcf	(___fldiv@rem+2)^0,f,c
  2930   0011C8  3622               	rlcf	(___fldiv@rem+3)^0,f,c
  2931   0011CA  90D8               	bcf	status,0,c
  2932   0011CC  3613               	rlcf	___fldiv@b^0,f,c
  2933   0011CE  3614               	rlcf	(___fldiv@b+1)^0,f,c
  2934   0011D0  3615               	rlcf	(___fldiv@b+2)^0,f,c
  2935   0011D2  3616               	rlcf	(___fldiv@b+3)^0,f,c
  2936   0011D4  AE29               	btfss	(___fldiv@grs+3)^0,7,c
  2937   0011D6  EFEF  F008         	goto	u881
  2938   0011DA  EFF1  F008         	goto	u880
  2939   0011DE                     u881:
  2940   0011DE  EFF2  F008         	goto	l898
  2941   0011E2                     u880:
  2942   0011E2  8013               	bsf	___fldiv@b^0,0,c
  2943   0011E4                     l898:
  2944   0011E4  90D8               	bcf	status,0,c
  2945   0011E6  3626               	rlcf	___fldiv@grs^0,f,c
  2946   0011E8  3627               	rlcf	(___fldiv@grs+1)^0,f,c
  2947   0011EA  3628               	rlcf	(___fldiv@grs+2)^0,f,c
  2948   0011EC  3629               	rlcf	(___fldiv@grs+3)^0,f,c
  2949   0011EE                     l1746:
  2950   0011EE  5017               	movf	___fldiv@a^0,w,c
  2951   0011F0  5C1F               	subwf	___fldiv@rem^0,w,c
  2952   0011F2  5018               	movf	(___fldiv@a+1)^0,w,c
  2953   0011F4  5820               	subwfb	(___fldiv@rem+1)^0,w,c
  2954   0011F6  5019               	movf	(___fldiv@a+2)^0,w,c
  2955   0011F8  5821               	subwfb	(___fldiv@rem+2)^0,w,c
  2956   0011FA  501A               	movf	(___fldiv@a+3)^0,w,c
  2957   0011FC  5822               	subwfb	(___fldiv@rem+3)^0,w,c
  2958   0011FE  A0D8               	btfss	status,0,c
  2959   001200  EF04  F009         	goto	u891
  2960   001204  EF06  F009         	goto	u890
  2961   001208                     u891:
  2962   001208  EF0F  F009         	goto	l1752
  2963   00120C                     u890:
  2964   00120C  8C29               	bsf	(___fldiv@grs+3)^0,6,c
  2965   00120E  5017               	movf	___fldiv@a^0,w,c
  2966   001210  5E1F               	subwf	___fldiv@rem^0,f,c
  2967   001212  5018               	movf	(___fldiv@a+1)^0,w,c
  2968   001214  5A20               	subwfb	(___fldiv@rem+1)^0,f,c
  2969   001216  5019               	movf	(___fldiv@a+2)^0,w,c
  2970   001218  5A21               	subwfb	(___fldiv@rem+2)^0,f,c
  2971   00121A  501A               	movf	(___fldiv@a+3)^0,w,c
  2972   00121C  5A22               	subwfb	(___fldiv@rem+3)^0,f,c
  2973   00121E                     l1752:
  2974   00121E  2A2B               	incf	___fldiv@aexp^0,f,c
  2975   001220                     l895:
  2976   001220  0E19               	movlw	25
  2977   001222  642B               	cpfsgt	___fldiv@aexp^0,c
  2978   001224  EF16  F009         	goto	u901
  2979   001228  EF18  F009         	goto	u900
  2980   00122C                     u901:
  2981   00122C  EFD8  F008         	goto	l1738
  2982   001230                     u900:
  2983   001230  501F               	movf	___fldiv@rem^0,w,c
  2984   001232  1020               	iorwf	(___fldiv@rem+1)^0,w,c
  2985   001234  1021               	iorwf	(___fldiv@rem+2)^0,w,c
  2986   001236  1022               	iorwf	(___fldiv@rem+3)^0,w,c
  2987   001238  B4D8               	btfsc	status,2,c
  2988   00123A  EF21  F009         	goto	u911
  2989   00123E  EF23  F009         	goto	u910
  2990   001242                     u911:
  2991   001242  EF3B  F009         	goto	l1764
  2992   001246                     u910:
  2993   001246  8026               	bsf	___fldiv@grs^0,0,c
  2994   001248  EF3B  F009         	goto	l1764
  2995   00124C                     l1758:
  2996   00124C  90D8               	bcf	status,0,c
  2997   00124E  3613               	rlcf	___fldiv@b^0,f,c
  2998   001250  3614               	rlcf	(___fldiv@b+1)^0,f,c
  2999   001252  3615               	rlcf	(___fldiv@b+2)^0,f,c
  3000   001254  3616               	rlcf	(___fldiv@b+3)^0,f,c
  3001   001256  AE29               	btfss	(___fldiv@grs+3)^0,7,c
  3002   001258  EF30  F009         	goto	u921
  3003   00125C  EF32  F009         	goto	u920
  3004   001260                     u921:
  3005   001260  EF33  F009         	goto	l904
  3006   001264                     u920:
  3007   001264  8013               	bsf	___fldiv@b^0,0,c
  3008   001266                     l904:
  3009   001266  90D8               	bcf	status,0,c
  3010   001268  3626               	rlcf	___fldiv@grs^0,f,c
  3011   00126A  3627               	rlcf	(___fldiv@grs+1)^0,f,c
  3012   00126C  3628               	rlcf	(___fldiv@grs+2)^0,f,c
  3013   00126E  3629               	rlcf	(___fldiv@grs+3)^0,f,c
  3014   001270  0624               	decf	___fldiv@new_exp^0,f,c
  3015   001272  A0D8               	btfss	status,0,c
  3016   001274  0625               	decf	(___fldiv@new_exp+1)^0,f,c
  3017   001276                     l1764:
  3018   001276  AE15               	btfss	(___fldiv@b+2)^0,7,c
  3019   001278  EF40  F009         	goto	u931
  3020   00127C  EF42  F009         	goto	u930
  3021   001280                     u931:
  3022   001280  EF26  F009         	goto	l1758
  3023   001284                     u930:
  3024   001284  6A2B               	clrf	___fldiv@aexp^0,c
  3025   001286  AE29               	btfss	(___fldiv@grs+3)^0,7,c
  3026   001288  EF48  F009         	goto	u941
  3027   00128C  EF4A  F009         	goto	u940
  3028   001290                     u941:
  3029   001290  EF6E  F009         	goto	l906
  3030   001294                     u940:
  3031   001294  0EFF               	movlw	255
  3032   001296  1426               	andwf	___fldiv@grs^0,w,c
  3033   001298  6E1B               	movwf	??___fldiv^0,c
  3034   00129A  0EFF               	movlw	255
  3035   00129C  1427               	andwf	(___fldiv@grs+1)^0,w,c
  3036   00129E  6E1C               	movwf	(??___fldiv+1)^0,c
  3037   0012A0  0EFF               	movlw	255
  3038   0012A2  1428               	andwf	(___fldiv@grs+2)^0,w,c
  3039   0012A4  6E1D               	movwf	(??___fldiv+2)^0,c
  3040   0012A6  0E7F               	movlw	127
  3041   0012A8  1429               	andwf	(___fldiv@grs+3)^0,w,c
  3042   0012AA  6E1E               	movwf	(??___fldiv+3)^0,c
  3043   0012AC  501B               	movf	??___fldiv^0,w,c
  3044   0012AE  101C               	iorwf	(??___fldiv+1)^0,w,c
  3045   0012B0  101D               	iorwf	(??___fldiv+2)^0,w,c
  3046   0012B2  101E               	iorwf	(??___fldiv+3)^0,w,c
  3047   0012B4  B4D8               	btfsc	status,2,c
  3048   0012B6  EF5F  F009         	goto	u951
  3049   0012BA  EF61  F009         	goto	u950
  3050   0012BE                     u951:
  3051   0012BE  EF65  F009         	goto	l907
  3052   0012C2                     u950:
  3053   0012C2                     l1768:
  3054   0012C2  0E01               	movlw	1
  3055   0012C4  6E2B               	movwf	___fldiv@aexp^0,c
  3056   0012C6  EF6E  F009         	goto	l906
  3057   0012CA                     l907:
  3058   0012CA  A013               	btfss	___fldiv@b^0,0,c
  3059   0012CC  EF6A  F009         	goto	u961
  3060   0012D0  EF6C  F009         	goto	u960
  3061   0012D4                     u961:
  3062   0012D4  EF6E  F009         	goto	l906
  3063   0012D8                     u960:
  3064   0012D8  EF61  F009         	goto	l1768
  3065   0012DC                     l906:
  3066   0012DC  502B               	movf	___fldiv@aexp^0,w,c
  3067   0012DE  B4D8               	btfsc	status,2,c
  3068   0012E0  EF74  F009         	goto	u971
  3069   0012E4  EF76  F009         	goto	u970
  3070   0012E8                     u971:
  3071   0012E8  EF9A  F009         	goto	l1780
  3072   0012EC                     u970:
  3073   0012EC  0E01               	movlw	1
  3074   0012EE  2613               	addwf	___fldiv@b^0,f,c
  3075   0012F0  0E00               	movlw	0
  3076   0012F2  2214               	addwfc	(___fldiv@b+1)^0,f,c
  3077   0012F4  2215               	addwfc	(___fldiv@b+2)^0,f,c
  3078   0012F6  2216               	addwfc	(___fldiv@b+3)^0,f,c
  3079   0012F8  A016               	btfss	(___fldiv@b+3)^0,0,c
  3080   0012FA  EF81  F009         	goto	u981
  3081   0012FE  EF83  F009         	goto	u980
  3082   001302                     u981:
  3083   001302  EF9A  F009         	goto	l1780
  3084   001306                     u980:
  3085   001306  C013  F01B         	movff	___fldiv@b,??___fldiv
  3086   00130A  C014  F01C         	movff	___fldiv@b+1,??___fldiv+1
  3087   00130E  C015  F01D         	movff	___fldiv@b+2,??___fldiv+2
  3088   001312  C016  F01E         	movff	___fldiv@b+3,??___fldiv+3
  3089   001316  341E               	rlcf	(??___fldiv+3)^0,w,c
  3090   001318  321E               	rrcf	(??___fldiv+3)^0,f,c
  3091   00131A  321D               	rrcf	(??___fldiv+2)^0,f,c
  3092   00131C  321C               	rrcf	(??___fldiv+1)^0,f,c
  3093   00131E  321B               	rrcf	??___fldiv^0,f,c
  3094   001320  C01B  F013         	movff	??___fldiv,___fldiv@b
  3095   001324  C01C  F014         	movff	??___fldiv+1,___fldiv@b+1
  3096   001328  C01D  F015         	movff	??___fldiv+2,___fldiv@b+2
  3097   00132C  C01E  F016         	movff	??___fldiv+3,___fldiv@b+3
  3098   001330  4A24               	infsnz	___fldiv@new_exp^0,f,c
  3099   001332  2A25               	incf	(___fldiv@new_exp+1)^0,f,c
  3100   001334                     l1780:
  3101   001334  BE25               	btfsc	(___fldiv@new_exp+1)^0,7,c
  3102   001336  EFA5  F009         	goto	u991
  3103   00133A  5025               	movf	(___fldiv@new_exp+1)^0,w,c
  3104   00133C  E108               	bnz	u990
  3105   00133E  2824               	incf	___fldiv@new_exp^0,w,c
  3106   001340  A0D8               	btfss	status,0,c
  3107   001342  EFA5  F009         	goto	u991
  3108   001346  EFA7  F009         	goto	u990
  3109   00134A                     u991:
  3110   00134A  EFB2  F009         	goto	l1784
  3111   00134E                     u990:
  3112   00134E  0E00               	movlw	0
  3113   001350  6E25               	movwf	(___fldiv@new_exp+1)^0,c
  3114   001352  6824               	setf	___fldiv@new_exp^0,c
  3115   001354  0E00               	movlw	0
  3116   001356  6E13               	movwf	___fldiv@b^0,c
  3117   001358  0E00               	movlw	0
  3118   00135A  6E14               	movwf	(___fldiv@b+1)^0,c
  3119   00135C  0E00               	movlw	0
  3120   00135E  6E15               	movwf	(___fldiv@b+2)^0,c
  3121   001360  0E00               	movlw	0
  3122   001362  6E16               	movwf	(___fldiv@b+3)^0,c
  3123   001364                     l1784:
  3124   001364  BE25               	btfsc	(___fldiv@new_exp+1)^0,7,c
  3125   001366  EFBF  F009         	goto	u1000
  3126   00136A  5025               	movf	(___fldiv@new_exp+1)^0,w,c
  3127   00136C  E106               	bnz	u1001
  3128   00136E  0424               	decf	___fldiv@new_exp^0,w,c
  3129   001370  B0D8               	btfsc	status,0,c
  3130   001372  EFBD  F009         	goto	u1001
  3131   001376  EFBF  F009         	goto	u1000
  3132   00137A                     u1001:
  3133   00137A  EFCB  F009         	goto	l1790
  3134   00137E                     u1000:
  3135   00137E  6A25               	clrf	(___fldiv@new_exp+1)^0,c
  3136   001380  0E00               	movlw	0
  3137   001382  6E24               	movwf	___fldiv@new_exp^0,c
  3138   001384  0E00               	movlw	0
  3139   001386  6E13               	movwf	___fldiv@b^0,c
  3140   001388  0E00               	movlw	0
  3141   00138A  6E14               	movwf	(___fldiv@b+1)^0,c
  3142   00138C  0E00               	movlw	0
  3143   00138E  6E15               	movwf	(___fldiv@b+2)^0,c
  3144   001390  0E00               	movlw	0
  3145   001392  6E16               	movwf	(___fldiv@b+3)^0,c
  3146   001394  6A23               	clrf	___fldiv@sign^0,c
  3147   001396                     l1790:
  3148   001396  C024  F02A         	movff	___fldiv@new_exp,___fldiv@bexp
  3149   00139A  A02A               	btfss	___fldiv@bexp^0,0,c
  3150   00139C  EFD2  F009         	goto	u1011
  3151   0013A0  EFD4  F009         	goto	u1010
  3152   0013A4                     u1011:
  3153   0013A4  EFD7  F009         	goto	l1796
  3154   0013A8                     u1010:
  3155   0013A8  8E15               	bsf	(___fldiv@b+2)^0,7,c
  3156   0013AA  EFD8  F009         	goto	l1798
  3157   0013AE                     l1796:
  3158   0013AE  9E15               	bcf	(___fldiv@b+2)^0,7,c
  3159   0013B0                     l1798:
  3160   0013B0  90D8               	bcf	status,0,c
  3161   0013B2  302A               	rrcf	___fldiv@bexp^0,w,c
  3162   0013B4  6E16               	movwf	(___fldiv@b+3)^0,c
  3163   0013B6  EF92  F008         	goto	l1714
  3164   0013BA                     l893:
  3165   0013BA  0012               	return		;funcret
  3166   0013BC                     __end_of___fldiv:
  3167                           	callstack 0
  3168                           
  3169 ;; *************** function _POS_CURSOR *****************
  3170 ;; Defined at:
  3171 ;;		line 5 in file "LCD.c"
  3172 ;; Parameters:    Size  Location     Type
  3173 ;;  fila            1    wreg     unsigned char 
  3174 ;;  columna         1    3[COMRAM] unsigned char 
  3175 ;; Auto vars:     Size  Location     Type
  3176 ;;  fila            1    4[COMRAM] unsigned char 
  3177 ;; Return value:  Size  Location     Type
  3178 ;;                  1    wreg      void 
  3179 ;; Registers used:
  3180 ;;		wreg, status,2, status,0, cstack
  3181 ;; Tracked objects:
  3182 ;;		On entry : 0/0
  3183 ;;		On exit  : 0/0
  3184 ;;		Unchanged: 0/0
  3185 ;; Data sizes:     COMRAM   BANK0   BANK1   BANK2   BANK3   BANK4   BANK5   BANK6   BANK7   BANK8   BANK9  BANK10  BANK1
      +1  BANK12  BANK14
  3186 ;;      Params:         1       0       0       0       0       0       0       0       0       0       0       0       
      +0       0       0
  3187 ;;      Locals:         1       0       0       0       0       0       0       0       0       0       0       0       
      +0       0       0
  3188 ;;      Temps:          0       0       0       0       0       0       0       0       0       0       0       0       
      +0       0       0
  3189 ;;      Totals:         2       0       0       0       0       0       0       0       0       0       0       0       
      +0       0       0
  3190 ;;Total ram usage:        2 bytes
  3191 ;; Hardware stack levels used: 1
  3192 ;; Hardware stack levels required when called: 1
  3193 ;; This function calls:
  3194 ;;		_ENVIA_LCD_CMD
  3195 ;; This function is called by:
  3196 ;;		_main
  3197 ;; This function uses a non-reentrant model
  3198 ;;
  3199                           
  3200                           	psect	text11
  3201   001934                     __ptext11:
  3202                           	callstack 0
  3203   001934                     _POS_CURSOR:
  3204                           	callstack 29
  3205                           
  3206                           ;incstack = 0
  3207                           ;POS_CURSOR@fila stored from wreg
  3208   001934  6E05               	movwf	POS_CURSOR@fila^0,c
  3209   001936                     
  3210                           ;LCD.c: 5: void POS_CURSOR(unsigned char fila,unsigned char columna);LCD.c: 6: {;LCD.c: 
      +                          7:  if(fila == 1)
  3211   001936  0405               	decf	POS_CURSOR@fila^0,w,c
  3212   001938  A4D8               	btfss	status,2,c
  3213   00193A  EFA1  F00C         	goto	u731
  3214   00193E  EFA3  F00C         	goto	u730
  3215   001942                     u731:
  3216   001942  EFA9  F00C         	goto	l1624
  3217   001946                     u730:
  3218   001946                     
  3219                           ;LCD.c: 8:  {;LCD.c: 9:   ENVIA_LCD_CMD(0x80+columna);
  3220   001946  5004               	movf	POS_CURSOR@columna^0,w,c
  3221   001948  0F80               	addlw	128
  3222   00194A  EC1E  F00E         	call	_ENVIA_LCD_CMD
  3223                           
  3224                           ;LCD.c: 10:  }
  3225   00194E  EFD4  F00C         	goto	l32
  3226   001952                     l1624:
  3227   001952  0E02               	movlw	2
  3228   001954  1805               	xorwf	POS_CURSOR@fila^0,w,c
  3229   001956  A4D8               	btfss	status,2,c
  3230   001958  EFB0  F00C         	goto	u741
  3231   00195C  EFB2  F00C         	goto	u740
  3232   001960                     u741:
  3233   001960  EFB8  F00C         	goto	l1628
  3234   001964                     u740:
  3235   001964                     
  3236                           ;LCD.c: 12:  {;LCD.c: 13:   ENVIA_LCD_CMD(0xC0+columna);
  3237   001964  5004               	movf	POS_CURSOR@columna^0,w,c
  3238   001966  0FC0               	addlw	192
  3239   001968  EC1E  F00E         	call	_ENVIA_LCD_CMD
  3240                           
  3241                           ;LCD.c: 14:  }
  3242   00196C  EFD4  F00C         	goto	l32
  3243   001970                     l1628:
  3244   001970  0E03               	movlw	3
  3245   001972  1805               	xorwf	POS_CURSOR@fila^0,w,c
  3246   001974  A4D8               	btfss	status,2,c
  3247   001976  EFBF  F00C         	goto	u751
  3248   00197A  EFC1  F00C         	goto	u750
  3249   00197E                     u751:
  3250   00197E  EFC7  F00C         	goto	l1632
  3251   001982                     u750:
  3252   001982                     
  3253                           ;LCD.c: 16:  {;LCD.c: 17:   ENVIA_LCD_CMD(0x94+columna);
  3254   001982  5004               	movf	POS_CURSOR@columna^0,w,c
  3255   001984  0F94               	addlw	148
  3256   001986  EC1E  F00E         	call	_ENVIA_LCD_CMD
  3257                           
  3258                           ;LCD.c: 18:  }
  3259   00198A  EFD4  F00C         	goto	l32
  3260   00198E                     l1632:
  3261   00198E  0E04               	movlw	4
  3262   001990  1805               	xorwf	POS_CURSOR@fila^0,w,c
  3263   001992  A4D8               	btfss	status,2,c
  3264   001994  EFCE  F00C         	goto	u761
  3265   001998  EFD0  F00C         	goto	u760
  3266   00199C                     u761:
  3267   00199C  EFD4  F00C         	goto	l32
  3268   0019A0                     u760:
  3269   0019A0                     
  3270                           ;LCD.c: 20:  {;LCD.c: 21:   ENVIA_LCD_CMD(0xD4+columna);
  3271   0019A0  5004               	movf	POS_CURSOR@columna^0,w,c
  3272   0019A2  0FD4               	addlw	212
  3273   0019A4  EC1E  F00E         	call	_ENVIA_LCD_CMD
  3274   0019A8                     l32:
  3275   0019A8  0012               	return		;funcret
  3276   0019AA                     __end_of_POS_CURSOR:
  3277                           	callstack 0
  3278                           
  3279 ;; *************** function _ENVIA_LCD_CMD *****************
  3280 ;; Defined at:
  3281 ;;		line 136 in file "LCD.c"
  3282 ;; Parameters:    Size  Location     Type
  3283 ;;  dato            1    wreg     unsigned char 
  3284 ;; Auto vars:     Size  Location     Type
  3285 ;;  dato            1    1[COMRAM] unsigned char 
  3286 ;;  aux             1    2[COMRAM] unsigned char 
  3287 ;; Return value:  Size  Location     Type
  3288 ;;                  1    wreg      void 
  3289 ;; Registers used:
  3290 ;;		wreg, status,2, status,0, cstack
  3291 ;; Tracked objects:
  3292 ;;		On entry : 0/0
  3293 ;;		On exit  : 0/0
  3294 ;;		Unchanged: 0/0
  3295 ;; Data sizes:     COMRAM   BANK0   BANK1   BANK2   BANK3   BANK4   BANK5   BANK6   BANK7   BANK8   BANK9  BANK10  BANK1
      +1  BANK12  BANK14
  3296 ;;      Params:         0       0       0       0       0       0       0       0       0       0       0       0       
      +0       0       0
  3297 ;;      Locals:         2       0       0       0       0       0       0       0       0       0       0       0       
      +0       0       0
  3298 ;;      Temps:          0       0       0       0       0       0       0       0       0       0       0       0       
      +0       0       0
  3299 ;;      Totals:         2       0       0       0       0       0       0       0       0       0       0       0       
      +0       0       0
  3300 ;;Total ram usage:        2 bytes
  3301 ;; Hardware stack levels used: 1
  3302 ;; This function calls:
  3303 ;;		_ENVIA_NIBBLE
  3304 ;;		_LEER_LCD
  3305 ;; This function is called by:
  3306 ;;		_POS_CURSOR
  3307 ;;		_CURSOR_HOME
  3308 ;;		_CURSOR_ONOFF
  3309 ;;		_BORRAR_LCD
  3310 ;;		_LCD_CONFIG
  3311 ;;		_BLINK_CURSOR
  3312 ;;		_DISPLAY_ONOFF
  3313 ;;		_CURSOR_SHIFTLEFT
  3314 ;;		_CURSOR_SHIFTRIGHT
  3315 ;;		_DISPLAY_SHIFTLEFT
  3316 ;;		_DISPLAY_SHIFTRIGHT
  3317 ;;		_GENERACARACTER
  3318 ;; This function uses a non-reentrant model
  3319 ;;
  3320                           
  3321                           	psect	text12
  3322   001C3C                     __ptext12:
  3323                           	callstack 0
  3324   001C3C                     _ENVIA_LCD_CMD:
  3325                           	callstack 27
  3326                           
  3327                           ;incstack = 0
  3328                           ;ENVIA_LCD_CMD@dato stored from wreg
  3329   001C3C  6E02               	movwf	ENVIA_LCD_CMD@dato^0,c
  3330   001C3E                     
  3331                           ;LCD.c: 136: void ENVIA_LCD_CMD(unsigned char dato);LCD.c: 137: {;LCD.c: 138:  unsigned 
      +                          char aux;;LCD.c: 139:  LATDbits.LATD0 = 0;
  3332   001C3E  9085               	bcf	133,0,c	;volatile
  3333   001C40                     
  3334                           ;LCD.c: 140:  LEER_LCD();
  3335   001C40  EC0E  F00D         	call	_LEER_LCD	;wreg free
  3336   001C44                     
  3337                           ;LCD.c: 141:  TRISD = 0b00000000;
  3338   001C44  6A8A               	clrf	138,c	;volatile
  3339   001C46                     
  3340                           ;LCD.c: 142:     _delay((unsigned long)((100)*(32000000UL/4000000.0)));
  3341   001C46  0EA0               	movlw	160
  3342   001C48                     u1257:
  3343   001C48  D000               	nop2	
  3344   001C4A  2EE8               	decfsz	wreg,f,c
  3345   001C4C  D7FD               	bra	u1257
  3346   001C4E                     
  3347                           ;LCD.c: 143:     LATDbits.LATD1 = 0;
  3348   001C4E  9285               	bcf	133,1,c	;volatile
  3349   001C50                     
  3350                           ;LCD.c: 144:  LATDbits.LATD2 = 0;
  3351   001C50  9485               	bcf	133,2,c	;volatile
  3352   001C52                     
  3353                           ;LCD.c: 145:  LATDbits.LATD0 = 0;
  3354   001C52  9085               	bcf	133,0,c	;volatile
  3355   001C54                     
  3356                           ;LCD.c: 146:  aux = dato & 0xF0;
  3357   001C54  5002               	movf	ENVIA_LCD_CMD@dato^0,w,c
  3358   001C56  0BF0               	andlw	240
  3359   001C58  6E03               	movwf	ENVIA_LCD_CMD@aux^0,c
  3360   001C5A                     
  3361                           ;LCD.c: 147:  ENVIA_NIBBLE(aux);
  3362   001C5A  5003               	movf	ENVIA_LCD_CMD@aux^0,w,c
  3363   001C5C  EC7B  F00E         	call	_ENVIA_NIBBLE
  3364   001C60                     
  3365                           ;LCD.c: 148:  aux = dato<<4;
  3366   001C60  3802               	swapf	ENVIA_LCD_CMD@dato^0,w,c
  3367   001C62  0BF0               	andlw	240
  3368   001C64  6E03               	movwf	ENVIA_LCD_CMD@aux^0,c
  3369   001C66                     
  3370                           ;LCD.c: 149:  ENVIA_NIBBLE(aux);
  3371   001C66  5003               	movf	ENVIA_LCD_CMD@aux^0,w,c
  3372   001C68  EC7B  F00E         	call	_ENVIA_NIBBLE
  3373   001C6C  0012               	return		;funcret
  3374   001C6E                     __end_of_ENVIA_LCD_CMD:
  3375                           	callstack 0
  3376                           
  3377 ;; *************** function _LCD_ESCRIBE_VAR_INT *****************
  3378 ;; Defined at:
  3379 ;;		line 224 in file "LCD.c"
  3380 ;; Parameters:    Size  Location     Type
  3381 ;;  numero          2   53[COMRAM] unsigned int 
  3382 ;;  n_digitos       1   55[COMRAM] unsigned char 
  3383 ;; Auto vars:     Size  Location     Type
  3384 ;;  unidad          1   60[COMRAM] unsigned char 
  3385 ;;  decena          1   59[COMRAM] unsigned char 
  3386 ;;  centena         1   58[COMRAM] unsigned char 
  3387 ;;  millar          1   57[COMRAM] unsigned char 
  3388 ;;  d_millar        1   56[COMRAM] unsigned char 
  3389 ;; Return value:  Size  Location     Type
  3390 ;;                  1    wreg      void 
  3391 ;; Registers used:
  3392 ;;		wreg, status,2, status,0, cstack
  3393 ;; Tracked objects:
  3394 ;;		On entry : 0/0
  3395 ;;		On exit  : 0/0
  3396 ;;		Unchanged: 0/0
  3397 ;; Data sizes:     COMRAM   BANK0   BANK1   BANK2   BANK3   BANK4   BANK5   BANK6   BANK7   BANK8   BANK9  BANK10  BANK1
      +1  BANK12  BANK14
  3398 ;;      Params:         3       0       0       0       0       0       0       0       0       0       0       0       
      +0       0       0
  3399 ;;      Locals:         5       0       0       0       0       0       0       0       0       0       0       0       
      +0       0       0
  3400 ;;      Temps:          0       0       0       0       0       0       0       0       0       0       0       0       
      +0       0       0
  3401 ;;      Totals:         8       0       0       0       0       0       0       0       0       0       0       0       
      +0       0       0
  3402 ;;Total ram usage:        8 bytes
  3403 ;; Hardware stack levels used: 1
  3404 ;; Hardware stack levels required when called: 1
  3405 ;; This function calls:
  3406 ;;		_ENVIA_CHAR
  3407 ;;		___lwdiv
  3408 ;;		___lwmod
  3409 ;; This function is called by:
  3410 ;;		_main
  3411 ;; This function uses a non-reentrant model
  3412 ;;
  3413                           
  3414                           	psect	text13
  3415   001570                     __ptext13:
  3416                           	callstack 0
  3417   001570                     _LCD_ESCRIBE_VAR_INT:
  3418                           	callstack 29
  3419   001570                     
  3420                           ;LCD.c: 225:     unsigned char d_millar, millar, centena, decena, unidad;;LCD.c: 226:   
      +                            d_millar = numero / 10000;
  3421   001570  C036  F006         	movff	LCD_ESCRIBE_VAR_INT@numero,___lwdiv@dividend
  3422   001574  C037  F007         	movff	LCD_ESCRIBE_VAR_INT@numero+1,___lwdiv@dividend+1
  3423   001578  0E27               	movlw	39
  3424   00157A  6E09               	movwf	(___lwdiv@divisor+1)^0,c
  3425   00157C  0E10               	movlw	16
  3426   00157E  6E08               	movwf	___lwdiv@divisor^0,c
  3427   001580  ECD5  F00C         	call	___lwdiv	;wreg free
  3428   001584  5006               	movf	?___lwdiv^0,w,c
  3429   001586  6E39               	movwf	LCD_ESCRIBE_VAR_INT@d_millar^0,c
  3430                           
  3431                           ;LCD.c: 227:     millar = (numero % 10000) / 1000;
  3432   001588  0E27               	movlw	39
  3433   00158A  6E04               	movwf	(___lwmod@divisor+1)^0,c
  3434   00158C  0E10               	movlw	16
  3435   00158E  6E03               	movwf	___lwmod@divisor^0,c
  3436   001590  C036  F001         	movff	LCD_ESCRIBE_VAR_INT@numero,___lwmod@dividend
  3437   001594  C037  F002         	movff	LCD_ESCRIBE_VAR_INT@numero+1,___lwmod@dividend+1
  3438   001598  EC47  F00D         	call	___lwmod	;wreg free
  3439   00159C  C001  F006         	movff	?___lwmod,___lwdiv@dividend
  3440   0015A0  C002  F007         	movff	?___lwmod+1,___lwdiv@dividend+1
  3441   0015A4  0E03               	movlw	3
  3442   0015A6  6E09               	movwf	(___lwdiv@divisor+1)^0,c
  3443   0015A8  0EE8               	movlw	232
  3444   0015AA  6E08               	movwf	___lwdiv@divisor^0,c
  3445   0015AC  ECD5  F00C         	call	___lwdiv	;wreg free
  3446   0015B0  5006               	movf	?___lwdiv^0,w,c
  3447   0015B2  6E3A               	movwf	LCD_ESCRIBE_VAR_INT@millar^0,c
  3448                           
  3449                           ;LCD.c: 228:     centena = (numero % 1000) / 100;
  3450   0015B4  0E03               	movlw	3
  3451   0015B6  6E04               	movwf	(___lwmod@divisor+1)^0,c
  3452   0015B8  0EE8               	movlw	232
  3453   0015BA  6E03               	movwf	___lwmod@divisor^0,c
  3454   0015BC  C036  F001         	movff	LCD_ESCRIBE_VAR_INT@numero,___lwmod@dividend
  3455   0015C0  C037  F002         	movff	LCD_ESCRIBE_VAR_INT@numero+1,___lwmod@dividend+1
  3456   0015C4  EC47  F00D         	call	___lwmod	;wreg free
  3457   0015C8  C001  F006         	movff	?___lwmod,___lwdiv@dividend
  3458   0015CC  C002  F007         	movff	?___lwmod+1,___lwdiv@dividend+1
  3459   0015D0  6A09               	clrf	(___lwdiv@divisor+1)^0,c
  3460   0015D2  0E64               	movlw	100
  3461   0015D4  6E08               	movwf	___lwdiv@divisor^0,c
  3462   0015D6  ECD5  F00C         	call	___lwdiv	;wreg free
  3463   0015DA  5006               	movf	?___lwdiv^0,w,c
  3464   0015DC  6E3B               	movwf	LCD_ESCRIBE_VAR_INT@centena^0,c
  3465                           
  3466                           ;LCD.c: 229:     decena = (numero % 100) / 10;
  3467   0015DE  6A04               	clrf	(___lwmod@divisor+1)^0,c
  3468   0015E0  0E64               	movlw	100
  3469   0015E2  6E03               	movwf	___lwmod@divisor^0,c
  3470   0015E4  C036  F001         	movff	LCD_ESCRIBE_VAR_INT@numero,___lwmod@dividend
  3471   0015E8  C037  F002         	movff	LCD_ESCRIBE_VAR_INT@numero+1,___lwmod@dividend+1
  3472   0015EC  EC47  F00D         	call	___lwmod	;wreg free
  3473   0015F0  C001  F006         	movff	?___lwmod,___lwdiv@dividend
  3474   0015F4  C002  F007         	movff	?___lwmod+1,___lwdiv@dividend+1
  3475   0015F8  6A09               	clrf	(___lwdiv@divisor+1)^0,c
  3476   0015FA  0E0A               	movlw	10
  3477   0015FC  6E08               	movwf	___lwdiv@divisor^0,c
  3478   0015FE  ECD5  F00C         	call	___lwdiv	;wreg free
  3479   001602  5006               	movf	?___lwdiv^0,w,c
  3480   001604  6E3C               	movwf	LCD_ESCRIBE_VAR_INT@decena^0,c
  3481                           
  3482                           ;LCD.c: 230:     unidad = numero % 10;
  3483   001606  C036  F001         	movff	LCD_ESCRIBE_VAR_INT@numero,___lwmod@dividend
  3484   00160A  C037  F002         	movff	LCD_ESCRIBE_VAR_INT@numero+1,___lwmod@dividend+1
  3485   00160E  6A04               	clrf	(___lwmod@divisor+1)^0,c
  3486   001610  0E0A               	movlw	10
  3487   001612  6E03               	movwf	___lwmod@divisor^0,c
  3488   001614  EC47  F00D         	call	___lwmod	;wreg free
  3489   001618  5001               	movf	?___lwmod^0,w,c
  3490   00161A  6E3D               	movwf	LCD_ESCRIBE_VAR_INT@unidad^0,c
  3491                           
  3492                           ;LCD.c: 231:     switch(n_digitos){
  3493   00161C  EF56  F00B         	goto	l1662
  3494   001620                     l1650:
  3495                           
  3496                           ;LCD.c: 233:             ENVIA_CHAR(unidad+0x30);
  3497   001620  503D               	movf	LCD_ESCRIBE_VAR_INT@unidad^0,w,c
  3498   001622  0F30               	addlw	48
  3499   001624  EC37  F00E         	call	_ENVIA_CHAR
  3500                           
  3501                           ;LCD.c: 234:             break;
  3502   001628  EF6D  F00B         	goto	l121
  3503   00162C                     l1652:
  3504                           
  3505                           ;LCD.c: 236:             ENVIA_CHAR(decena+0x30);
  3506   00162C  503C               	movf	LCD_ESCRIBE_VAR_INT@decena^0,w,c
  3507   00162E  0F30               	addlw	48
  3508   001630  EC37  F00E         	call	_ENVIA_CHAR
  3509                           
  3510                           ;LCD.c: 237:             ENVIA_CHAR(unidad+0x30);
  3511   001634  503D               	movf	LCD_ESCRIBE_VAR_INT@unidad^0,w,c
  3512   001636  0F30               	addlw	48
  3513   001638  EC37  F00E         	call	_ENVIA_CHAR
  3514                           
  3515                           ;LCD.c: 238:             break;
  3516   00163C  EF6D  F00B         	goto	l121
  3517   001640                     l1654:
  3518                           
  3519                           ;LCD.c: 240:             ENVIA_CHAR(centena+0x30);
  3520   001640  503B               	movf	LCD_ESCRIBE_VAR_INT@centena^0,w,c
  3521   001642  0F30               	addlw	48
  3522   001644  EC37  F00E         	call	_ENVIA_CHAR
  3523                           
  3524                           ;LCD.c: 241:             ENVIA_CHAR(decena+0x30);
  3525   001648  503C               	movf	LCD_ESCRIBE_VAR_INT@decena^0,w,c
  3526   00164A  0F30               	addlw	48
  3527   00164C  EC37  F00E         	call	_ENVIA_CHAR
  3528                           
  3529                           ;LCD.c: 242:             ENVIA_CHAR(unidad+0x30);
  3530   001650  503D               	movf	LCD_ESCRIBE_VAR_INT@unidad^0,w,c
  3531   001652  0F30               	addlw	48
  3532   001654  EC37  F00E         	call	_ENVIA_CHAR
  3533                           
  3534                           ;LCD.c: 243:             break;
  3535   001658  EF6D  F00B         	goto	l121
  3536   00165C                     l1656:
  3537                           
  3538                           ;LCD.c: 245:             ENVIA_CHAR(millar+0x30);
  3539   00165C  503A               	movf	LCD_ESCRIBE_VAR_INT@millar^0,w,c
  3540   00165E  0F30               	addlw	48
  3541   001660  EC37  F00E         	call	_ENVIA_CHAR
  3542                           
  3543                           ;LCD.c: 246:             ENVIA_CHAR(centena+0x30);
  3544   001664  503B               	movf	LCD_ESCRIBE_VAR_INT@centena^0,w,c
  3545   001666  0F30               	addlw	48
  3546   001668  EC37  F00E         	call	_ENVIA_CHAR
  3547                           
  3548                           ;LCD.c: 247:             ENVIA_CHAR(decena+0x30);
  3549   00166C  503C               	movf	LCD_ESCRIBE_VAR_INT@decena^0,w,c
  3550   00166E  0F30               	addlw	48
  3551   001670  EC37  F00E         	call	_ENVIA_CHAR
  3552                           
  3553                           ;LCD.c: 248:             ENVIA_CHAR(unidad+0x30);
  3554   001674  503D               	movf	LCD_ESCRIBE_VAR_INT@unidad^0,w,c
  3555   001676  0F30               	addlw	48
  3556   001678  EC37  F00E         	call	_ENVIA_CHAR
  3557                           
  3558                           ;LCD.c: 249:             break;
  3559   00167C  EF6D  F00B         	goto	l121
  3560   001680                     l1658:
  3561                           
  3562                           ;LCD.c: 251:             ENVIA_CHAR(d_millar+0x30);
  3563   001680  5039               	movf	LCD_ESCRIBE_VAR_INT@d_millar^0,w,c
  3564   001682  0F30               	addlw	48
  3565   001684  EC37  F00E         	call	_ENVIA_CHAR
  3566                           
  3567                           ;LCD.c: 252:             ENVIA_CHAR(millar+0x30);
  3568   001688  503A               	movf	LCD_ESCRIBE_VAR_INT@millar^0,w,c
  3569   00168A  0F30               	addlw	48
  3570   00168C  EC37  F00E         	call	_ENVIA_CHAR
  3571                           
  3572                           ;LCD.c: 253:             ENVIA_CHAR(centena+0x30);
  3573   001690  503B               	movf	LCD_ESCRIBE_VAR_INT@centena^0,w,c
  3574   001692  0F30               	addlw	48
  3575   001694  EC37  F00E         	call	_ENVIA_CHAR
  3576                           
  3577                           ;LCD.c: 254:             ENVIA_CHAR(decena+0x30);
  3578   001698  503C               	movf	LCD_ESCRIBE_VAR_INT@decena^0,w,c
  3579   00169A  0F30               	addlw	48
  3580   00169C  EC37  F00E         	call	_ENVIA_CHAR
  3581                           
  3582                           ;LCD.c: 255:             ENVIA_CHAR(unidad+0x30);
  3583   0016A0  503D               	movf	LCD_ESCRIBE_VAR_INT@unidad^0,w,c
  3584   0016A2  0F30               	addlw	48
  3585   0016A4  EC37  F00E         	call	_ENVIA_CHAR
  3586                           
  3587                           ;LCD.c: 256:             break;
  3588   0016A8  EF6D  F00B         	goto	l121
  3589   0016AC                     l1662:
  3590   0016AC  5038               	movf	LCD_ESCRIBE_VAR_INT@n_digitos^0,w,c
  3591                           
  3592                           ; Switch size 1, requested type "simple"
  3593                           ; Number of cases is 5, Range of values is 1 to 5
  3594                           ; switch strategies available:
  3595                           ; Name         Instructions Cycles
  3596                           ; simple_byte           16     9 (average)
  3597                           ;	Chosen strategy is simple_byte
  3598   0016AE  0A01               	xorlw	1	; case 1
  3599   0016B0  B4D8               	btfsc	status,2,c
  3600   0016B2  EF10  F00B         	goto	l1650
  3601   0016B6  0A03               	xorlw	3	; case 2
  3602   0016B8  B4D8               	btfsc	status,2,c
  3603   0016BA  EF16  F00B         	goto	l1652
  3604   0016BE  0A01               	xorlw	1	; case 3
  3605   0016C0  B4D8               	btfsc	status,2,c
  3606   0016C2  EF20  F00B         	goto	l1654
  3607   0016C6  0A07               	xorlw	7	; case 4
  3608   0016C8  B4D8               	btfsc	status,2,c
  3609   0016CA  EF2E  F00B         	goto	l1656
  3610   0016CE  0A01               	xorlw	1	; case 5
  3611   0016D0  B4D8               	btfsc	status,2,c
  3612   0016D2  EF40  F00B         	goto	l1658
  3613   0016D6  EF6D  F00B         	goto	l121
  3614   0016DA                     l121:
  3615   0016DA  0012               	return		;funcret
  3616   0016DC                     __end_of_LCD_ESCRIBE_VAR_INT:
  3617                           	callstack 0
  3618                           
  3619 ;; *************** function ___lwmod *****************
  3620 ;; Defined at:
  3621 ;;		line 7 in file "C:\Program Files\Microchip\xc8\v3.10\pic\sources\c99\common\lwmod.c"
  3622 ;; Parameters:    Size  Location     Type
  3623 ;;  dividend        2    0[COMRAM] unsigned int 
  3624 ;;  divisor         2    2[COMRAM] unsigned int 
  3625 ;; Auto vars:     Size  Location     Type
  3626 ;;  counter         1    4[COMRAM] unsigned char 
  3627 ;; Return value:  Size  Location     Type
  3628 ;;                  2    0[COMRAM] unsigned int 
  3629 ;; Registers used:
  3630 ;;		wreg, status,2, status,0
  3631 ;; Tracked objects:
  3632 ;;		On entry : 0/0
  3633 ;;		On exit  : 0/0
  3634 ;;		Unchanged: 0/0
  3635 ;; Data sizes:     COMRAM   BANK0   BANK1   BANK2   BANK3   BANK4   BANK5   BANK6   BANK7   BANK8   BANK9  BANK10  BANK1
      +1  BANK12  BANK14
  3636 ;;      Params:         4       0       0       0       0       0       0       0       0       0       0       0       
      +0       0       0
  3637 ;;      Locals:         1       0       0       0       0       0       0       0       0       0       0       0       
      +0       0       0
  3638 ;;      Temps:          0       0       0       0       0       0       0       0       0       0       0       0       
      +0       0       0
  3639 ;;      Totals:         5       0       0       0       0       0       0       0       0       0       0       0       
      +0       0       0
  3640 ;;Total ram usage:        5 bytes
  3641 ;; Hardware stack levels used: 1
  3642 ;; This function calls:
  3643 ;;		Nothing
  3644 ;; This function is called by:
  3645 ;;		_LCD_ESCRIBE_VAR_INT
  3646 ;; This function uses a non-reentrant model
  3647 ;;
  3648                           
  3649                           	psect	text14
  3650   001A8E                     __ptext14:
  3651                           	callstack 0
  3652   001A8E                     ___lwmod:
  3653                           	callstack 29
  3654   001A8E  5003               	movf	___lwmod@divisor^0,w,c
  3655   001A90  1004               	iorwf	(___lwmod@divisor+1)^0,w,c
  3656   001A92  B4D8               	btfsc	status,2,c
  3657   001A94  EF4E  F00D         	goto	u701
  3658   001A98  EF50  F00D         	goto	u700
  3659   001A9C                     u701:
  3660   001A9C  EF74  F00D         	goto	l812
  3661   001AA0                     u700:
  3662   001AA0  0E01               	movlw	1
  3663   001AA2  6E05               	movwf	___lwmod@counter^0,c
  3664   001AA4  EF58  F00D         	goto	l1610
  3665   001AA8                     l1608:
  3666   001AA8  90D8               	bcf	status,0,c
  3667   001AAA  3603               	rlcf	___lwmod@divisor^0,f,c
  3668   001AAC  3604               	rlcf	(___lwmod@divisor+1)^0,f,c
  3669   001AAE  2A05               	incf	___lwmod@counter^0,f,c
  3670   001AB0                     l1610:
  3671   001AB0  AE04               	btfss	(___lwmod@divisor+1)^0,7,c
  3672   001AB2  EF5D  F00D         	goto	u711
  3673   001AB6  EF5F  F00D         	goto	u710
  3674   001ABA                     u711:
  3675   001ABA  EF54  F00D         	goto	l1608
  3676   001ABE                     u710:
  3677   001ABE                     l1612:
  3678   001ABE  5003               	movf	___lwmod@divisor^0,w,c
  3679   001AC0  5C01               	subwf	___lwmod@dividend^0,w,c
  3680   001AC2  5004               	movf	(___lwmod@divisor+1)^0,w,c
  3681   001AC4  5802               	subwfb	(___lwmod@dividend+1)^0,w,c
  3682   001AC6  A0D8               	btfss	status,0,c
  3683   001AC8  EF68  F00D         	goto	u721
  3684   001ACC  EF6A  F00D         	goto	u720
  3685   001AD0                     u721:
  3686   001AD0  EF6E  F00D         	goto	l1616
  3687   001AD4                     u720:
  3688   001AD4  5003               	movf	___lwmod@divisor^0,w,c
  3689   001AD6  5E01               	subwf	___lwmod@dividend^0,f,c
  3690   001AD8  5004               	movf	(___lwmod@divisor+1)^0,w,c
  3691   001ADA  5A02               	subwfb	(___lwmod@dividend+1)^0,f,c
  3692   001ADC                     l1616:
  3693   001ADC  90D8               	bcf	status,0,c
  3694   001ADE  3204               	rrcf	(___lwmod@divisor+1)^0,f,c
  3695   001AE0  3203               	rrcf	___lwmod@divisor^0,f,c
  3696   001AE2  2E05               	decfsz	___lwmod@counter^0,f,c
  3697   001AE4  EF5F  F00D         	goto	l1612
  3698   001AE8                     l812:
  3699   001AE8  C001  F001         	movff	___lwmod@dividend,?___lwmod
  3700   001AEC  C002  F002         	movff	___lwmod@dividend+1,?___lwmod+1
  3701   001AF0  0012               	return		;funcret
  3702   001AF2                     __end_of___lwmod:
  3703                           	callstack 0
  3704                           
  3705 ;; *************** function ___lwdiv *****************
  3706 ;; Defined at:
  3707 ;;		line 7 in file "C:\Program Files\Microchip\xc8\v3.10\pic\sources\c99\common\lwdiv.c"
  3708 ;; Parameters:    Size  Location     Type
  3709 ;;  dividend        2    5[COMRAM] unsigned int 
  3710 ;;  divisor         2    7[COMRAM] unsigned int 
  3711 ;; Auto vars:     Size  Location     Type
  3712 ;;  quotient        2    9[COMRAM] unsigned int 
  3713 ;;  counter         1   11[COMRAM] unsigned char 
  3714 ;; Return value:  Size  Location     Type
  3715 ;;                  2    5[COMRAM] unsigned int 
  3716 ;; Registers used:
  3717 ;;		wreg, status,2, status,0
  3718 ;; Tracked objects:
  3719 ;;		On entry : 0/0
  3720 ;;		On exit  : 0/0
  3721 ;;		Unchanged: 0/0
  3722 ;; Data sizes:     COMRAM   BANK0   BANK1   BANK2   BANK3   BANK4   BANK5   BANK6   BANK7   BANK8   BANK9  BANK10  BANK1
      +1  BANK12  BANK14
  3723 ;;      Params:         4       0       0       0       0       0       0       0       0       0       0       0       
      +0       0       0
  3724 ;;      Locals:         3       0       0       0       0       0       0       0       0       0       0       0       
      +0       0       0
  3725 ;;      Temps:          0       0       0       0       0       0       0       0       0       0       0       0       
      +0       0       0
  3726 ;;      Totals:         7       0       0       0       0       0       0       0       0       0       0       0       
      +0       0       0
  3727 ;;Total ram usage:        7 bytes
  3728 ;; Hardware stack levels used: 1
  3729 ;; This function calls:
  3730 ;;		Nothing
  3731 ;; This function is called by:
  3732 ;;		_LCD_ESCRIBE_VAR_INT
  3733 ;; This function uses a non-reentrant model
  3734 ;;
  3735                           
  3736                           	psect	text15
  3737   0019AA                     __ptext15:
  3738                           	callstack 0
  3739   0019AA                     ___lwdiv:
  3740                           	callstack 29
  3741   0019AA  6A0B               	clrf	(___lwdiv@quotient+1)^0,c
  3742   0019AC  0E00               	movlw	0
  3743   0019AE  6E0A               	movwf	___lwdiv@quotient^0,c
  3744   0019B0  5008               	movf	___lwdiv@divisor^0,w,c
  3745   0019B2  1009               	iorwf	(___lwdiv@divisor+1)^0,w,c
  3746   0019B4  B4D8               	btfsc	status,2,c
  3747   0019B6  EFDF  F00C         	goto	u671
  3748   0019BA  EFE1  F00C         	goto	u670
  3749   0019BE                     u671:
  3750   0019BE  EF09  F00D         	goto	l802
  3751   0019C2                     u670:
  3752   0019C2  0E01               	movlw	1
  3753   0019C4  6E0C               	movwf	___lwdiv@counter^0,c
  3754   0019C6  EFE9  F00C         	goto	l1590
  3755   0019CA                     l1588:
  3756   0019CA  90D8               	bcf	status,0,c
  3757   0019CC  3608               	rlcf	___lwdiv@divisor^0,f,c
  3758   0019CE  3609               	rlcf	(___lwdiv@divisor+1)^0,f,c
  3759   0019D0  2A0C               	incf	___lwdiv@counter^0,f,c
  3760   0019D2                     l1590:
  3761   0019D2  AE09               	btfss	(___lwdiv@divisor+1)^0,7,c
  3762   0019D4  EFEE  F00C         	goto	u681
  3763   0019D8  EFF0  F00C         	goto	u680
  3764   0019DC                     u681:
  3765   0019DC  EFE5  F00C         	goto	l1588
  3766   0019E0                     u680:
  3767   0019E0                     l1592:
  3768   0019E0  90D8               	bcf	status,0,c
  3769   0019E2  360A               	rlcf	___lwdiv@quotient^0,f,c
  3770   0019E4  360B               	rlcf	(___lwdiv@quotient+1)^0,f,c
  3771   0019E6  5008               	movf	___lwdiv@divisor^0,w,c
  3772   0019E8  5C06               	subwf	___lwdiv@dividend^0,w,c
  3773   0019EA  5009               	movf	(___lwdiv@divisor+1)^0,w,c
  3774   0019EC  5807               	subwfb	(___lwdiv@dividend+1)^0,w,c
  3775   0019EE  A0D8               	btfss	status,0,c
  3776   0019F0  EFFC  F00C         	goto	u691
  3777   0019F4  EFFE  F00C         	goto	u690
  3778   0019F8                     u691:
  3779   0019F8  EF03  F00D         	goto	l1600
  3780   0019FC                     u690:
  3781   0019FC  5008               	movf	___lwdiv@divisor^0,w,c
  3782   0019FE  5E06               	subwf	___lwdiv@dividend^0,f,c
  3783   001A00  5009               	movf	(___lwdiv@divisor+1)^0,w,c
  3784   001A02  5A07               	subwfb	(___lwdiv@dividend+1)^0,f,c
  3785   001A04  800A               	bsf	___lwdiv@quotient^0,0,c
  3786   001A06                     l1600:
  3787   001A06  90D8               	bcf	status,0,c
  3788   001A08  3209               	rrcf	(___lwdiv@divisor+1)^0,f,c
  3789   001A0A  3208               	rrcf	___lwdiv@divisor^0,f,c
  3790   001A0C  2E0C               	decfsz	___lwdiv@counter^0,f,c
  3791   001A0E  EFF0  F00C         	goto	l1592
  3792   001A12                     l802:
  3793   001A12  C00A  F006         	movff	___lwdiv@quotient,?___lwdiv
  3794   001A16  C00B  F007         	movff	___lwdiv@quotient+1,?___lwdiv+1
  3795   001A1A  0012               	return		;funcret
  3796   001A1C                     __end_of___lwdiv:
  3797                           	callstack 0
  3798                           
  3799 ;; *************** function _ESCRIBE_MENSAJE2 *****************
  3800 ;; Defined at:
  3801 ;;		line 77 in file "LCD.c"
  3802 ;; Parameters:    Size  Location     Type
  3803 ;;  cadena          1    3[COMRAM] PTR const unsigned char 
  3804 ;;		 -> STR_5(3), STR_4(4), STR_3(9), STR_2(15), 
  3805 ;;		 -> STR_1(13), 
  3806 ;; Auto vars:     Size  Location     Type
  3807 ;;  i               1    6[COMRAM] unsigned char 
  3808 ;;  tam             1    5[COMRAM] unsigned char 
  3809 ;; Return value:  Size  Location     Type
  3810 ;;                  1    wreg      void 
  3811 ;; Registers used:
  3812 ;;		wreg, status,2, status,0, tblptrl, tblptrh, tblptru, cstack
  3813 ;; Tracked objects:
  3814 ;;		On entry : 0/0
  3815 ;;		On exit  : 0/0
  3816 ;;		Unchanged: 0/0
  3817 ;; Data sizes:     COMRAM   BANK0   BANK1   BANK2   BANK3   BANK4   BANK5   BANK6   BANK7   BANK8   BANK9  BANK10  BANK1
      +1  BANK12  BANK14
  3818 ;;      Params:         1       0       0       0       0       0       0       0       0       0       0       0       
      +0       0       0
  3819 ;;      Locals:         2       0       0       0       0       0       0       0       0       0       0       0       
      +0       0       0
  3820 ;;      Temps:          1       0       0       0       0       0       0       0       0       0       0       0       
      +0       0       0
  3821 ;;      Totals:         4       0       0       0       0       0       0       0       0       0       0       0       
      +0       0       0
  3822 ;;Total ram usage:        4 bytes
  3823 ;; Hardware stack levels used: 1
  3824 ;; Hardware stack levels required when called: 2
  3825 ;; This function calls:
  3826 ;;		_ENVIA_CHAR
  3827 ;;		_strlen
  3828 ;; This function is called by:
  3829 ;;		_main
  3830 ;; This function uses a non-reentrant model
  3831 ;;
  3832                           
  3833                           	psect	text16
  3834   001B88                     __ptext16:
  3835                           	callstack 0
  3836   001B88                     _ESCRIBE_MENSAJE2:
  3837                           	callstack 28
  3838   001B88                     
  3839                           ;LCD.c: 77: void ESCRIBE_MENSAJE2(const char *cadena);LCD.c: 78: {;LCD.c: 79:     unsign
      +                          ed char tam;;LCD.c: 80:     tam = strlen(cadena);
  3840   001B88  C004  F001         	movff	ESCRIBE_MENSAJE2@cadena,strlen@s
  3841   001B8C  EC02  F00E         	call	_strlen	;wreg free
  3842   001B90  5001               	movf	?_strlen^0,w,c
  3843   001B92  6E06               	movwf	ESCRIBE_MENSAJE2@tam^0,c
  3844   001B94                     
  3845                           ;LCD.c: 82:  for(i = 0; i<tam; i++)
  3846   001B94  6A07               	clrf	ESCRIBE_MENSAJE2@i^0,c
  3847   001B96  EFDB  F00D         	goto	l1646
  3848   001B9A                     l1642:
  3849                           
  3850                           ;LCD.c: 83:  {;LCD.c: 84:   ENVIA_CHAR(cadena[i]);
  3851   001B9A  5004               	movf	ESCRIBE_MENSAJE2@cadena^0,w,c
  3852   001B9C  2407               	addwf	ESCRIBE_MENSAJE2@i^0,w,c
  3853   001B9E  6E05               	movwf	??_ESCRIBE_MENSAJE2^0,c
  3854   001BA0  C005  FFF6         	movff	??_ESCRIBE_MENSAJE2,tblptrl
  3855   001BA4                     	if	1	;There is more than 1 active tblptr byte
  3856   001BA4  0E10               	movlw	high __smallconst
  3857   001BA6  6EF7               	movwf	tblptrh,c
  3858   001BA8                     	endif
  3859   001BA8                     	if	0	;tblptru may be non-zero
  3860   001BA8                     	endif
  3861   001BA8                     	if	1	;Program memory is > 0xFFFF, there are 3 active tblptr bytes
  3862   001BA8  0E00               	movlw	low (__smallconst shr (0+16))
  3863   001BAA  6EF8               	movwf	tblptru,c
  3864   001BAC                     	endif
  3865   001BAC  0008               	tblrd		*
  3866   001BAE  50F5               	movf	tablat,w,c
  3867   001BB0  EC37  F00E         	call	_ENVIA_CHAR
  3868   001BB4                     
  3869                           ;LCD.c: 85:  }
  3870   001BB4  2A07               	incf	ESCRIBE_MENSAJE2@i^0,f,c
  3871   001BB6                     l1646:
  3872   001BB6  5006               	movf	ESCRIBE_MENSAJE2@tam^0,w,c
  3873   001BB8  5C07               	subwf	ESCRIBE_MENSAJE2@i^0,w,c
  3874   001BBA  A0D8               	btfss	status,0,c
  3875   001BBC  EFE2  F00D         	goto	u771
  3876   001BC0  EFE4  F00D         	goto	u770
  3877   001BC4                     u771:
  3878   001BC4  EFCD  F00D         	goto	l1642
  3879   001BC8                     u770:
  3880   001BC8  0012               	return		;funcret
  3881   001BCA                     __end_of_ESCRIBE_MENSAJE2:
  3882                           	callstack 0
  3883                           
  3884 ;; *************** function _strlen *****************
  3885 ;; Defined at:
  3886 ;;		line 5 in file "C:\Program Files\Microchip\xc8\v3.10\pic\sources\c99\common\strlen.c"
  3887 ;; Parameters:    Size  Location     Type
  3888 ;;  s               1    0[COMRAM] PTR const unsigned char 
  3889 ;;		 -> STR_5(3), STR_4(4), STR_3(9), STR_2(15), 
  3890 ;;		 -> STR_1(13), 
  3891 ;; Auto vars:     Size  Location     Type
  3892 ;;  a               1    2[COMRAM] PTR const unsigned char 
  3893 ;;		 -> STR_5(3), STR_4(4), STR_3(9), STR_2(15), 
  3894 ;;		 -> STR_1(13), 
  3895 ;; Return value:  Size  Location     Type
  3896 ;;                  2    0[COMRAM] unsigned int 
  3897 ;; Registers used:
  3898 ;;		wreg, status,2, status,0, tblptrl, tblptrh, tblptru
  3899 ;; Tracked objects:
  3900 ;;		On entry : 0/0
  3901 ;;		On exit  : 0/0
  3902 ;;		Unchanged: 0/0
  3903 ;; Data sizes:     COMRAM   BANK0   BANK1   BANK2   BANK3   BANK4   BANK5   BANK6   BANK7   BANK8   BANK9  BANK10  BANK1
      +1  BANK12  BANK14
  3904 ;;      Params:         2       0       0       0       0       0       0       0       0       0       0       0       
      +0       0       0
  3905 ;;      Locals:         1       0       0       0       0       0       0       0       0       0       0       0       
      +0       0       0
  3906 ;;      Temps:          0       0       0       0       0       0       0       0       0       0       0       0       
      +0       0       0
  3907 ;;      Totals:         3       0       0       0       0       0       0       0       0       0       0       0       
      +0       0       0
  3908 ;;Total ram usage:        3 bytes
  3909 ;; Hardware stack levels used: 1
  3910 ;; This function calls:
  3911 ;;		Nothing
  3912 ;; This function is called by:
  3913 ;;		_ESCRIBE_MENSAJE2
  3914 ;; This function uses a non-reentrant model
  3915 ;;
  3916                           
  3917                           	psect	text17
  3918   001C04                     __ptext17:
  3919                           	callstack 0
  3920   001C04                     _strlen:
  3921                           	callstack 29
  3922   001C04  C001  F003         	movff	strlen@s,strlen@a
  3923   001C08  EF07  F00E         	goto	l1576
  3924   001C0C                     l1574:
  3925   001C0C  2A01               	incf	strlen@s^0,f,c
  3926   001C0E                     l1576:
  3927   001C0E  C001  FFF6         	movff	strlen@s,tblptrl
  3928   001C12                     	if	1	;There is more than 1 active tblptr byte
  3929   001C12  0E10               	movlw	high __smallconst
  3930   001C14  6EF7               	movwf	tblptrh,c
  3931   001C16                     	endif
  3932   001C16                     	if	0	;tblptru may be non-zero
  3933   001C16                     	endif
  3934   001C16                     	if	1	;Program memory is > 0xFFFF, there are 3 active tblptr bytes
  3935   001C16  0E00               	movlw	low (__smallconst shr (0+16))
  3936   001C18  6EF8               	movwf	tblptru,c
  3937   001C1A                     	endif
  3938   001C1A  0008               	tblrd		*
  3939   001C1C  50F5               	movf	tablat,w,c
  3940   001C1E  0900               	iorlw	0
  3941   001C20  A4D8               	btfss	status,2,c
  3942   001C22  EF15  F00E         	goto	u661
  3943   001C26  EF17  F00E         	goto	u660
  3944   001C2A                     u661:
  3945   001C2A  EF06  F00E         	goto	l1574
  3946   001C2E                     u660:
  3947   001C2E  5003               	movf	strlen@a^0,w,c
  3948   001C30  5C01               	subwf	strlen@s^0,w,c
  3949   001C32  6E01               	movwf	?_strlen^0,c
  3950   001C34  6A02               	clrf	(?_strlen+1)^0,c
  3951   001C36  BE01               	btfsc	?_strlen^0,7,c
  3952   001C38  0602               	decf	(?_strlen+1)^0,f,c
  3953   001C3A  0012               	return		;funcret
  3954   001C3C                     __end_of_strlen:
  3955                           	callstack 0
  3956                           
  3957 ;; *************** function _ENVIA_CHAR *****************
  3958 ;; Defined at:
  3959 ;;		line 88 in file "LCD.c"
  3960 ;; Parameters:    Size  Location     Type
  3961 ;;  dato            1    wreg     unsigned char 
  3962 ;; Auto vars:     Size  Location     Type
  3963 ;;  dato            1    1[COMRAM] unsigned char 
  3964 ;;  aux             1    2[COMRAM] unsigned char 
  3965 ;; Return value:  Size  Location     Type
  3966 ;;                  1    wreg      void 
  3967 ;; Registers used:
  3968 ;;		wreg, status,2, status,0, cstack
  3969 ;; Tracked objects:
  3970 ;;		On entry : 0/0
  3971 ;;		On exit  : 0/0
  3972 ;;		Unchanged: 0/0
  3973 ;; Data sizes:     COMRAM   BANK0   BANK1   BANK2   BANK3   BANK4   BANK5   BANK6   BANK7   BANK8   BANK9  BANK10  BANK1
      +1  BANK12  BANK14
  3974 ;;      Params:         0       0       0       0       0       0       0       0       0       0       0       0       
      +0       0       0
  3975 ;;      Locals:         2       0       0       0       0       0       0       0       0       0       0       0       
      +0       0       0
  3976 ;;      Temps:          0       0       0       0       0       0       0       0       0       0       0       0       
      +0       0       0
  3977 ;;      Totals:         2       0       0       0       0       0       0       0       0       0       0       0       
      +0       0       0
  3978 ;;Total ram usage:        2 bytes
  3979 ;; Hardware stack levels used: 1
  3980 ;; This function calls:
  3981 ;;		_ENVIA_NIBBLE
  3982 ;;		_LEER_LCD
  3983 ;; This function is called by:
  3984 ;;		_ESCRIBE_MENSAJE2
  3985 ;;		_LCD_ESCRIBE_VAR_INT
  3986 ;;		_ESCRIBE_MENSAJE
  3987 ;;		_GENERACARACTER
  3988 ;;		_LCD_ESCRIBE_VAR_CHAR
  3989 ;;		_LCD_CHAR_GRADO
  3990 ;;		_LCD_VARCHAR_BITS
  3991 ;; This function uses a non-reentrant model
  3992 ;;
  3993                           
  3994                           	psect	text18
  3995   001C6E                     __ptext18:
  3996                           	callstack 0
  3997   001C6E                     _ENVIA_CHAR:
  3998                           	callstack 29
  3999                           
  4000                           ;incstack = 0
  4001                           ;ENVIA_CHAR@dato stored from wreg
  4002   001C6E  6E02               	movwf	ENVIA_CHAR@dato^0,c
  4003   001C70                     
  4004                           ;LCD.c: 88: void ENVIA_CHAR(unsigned char dato);LCD.c: 89: {;LCD.c: 90:  unsigned char a
      +                          ux;;LCD.c: 91:  LATDbits.LATD0 = 1;
  4005   001C70  8085               	bsf	133,0,c	;volatile
  4006   001C72                     
  4007                           ;LCD.c: 92:  LEER_LCD();
  4008   001C72  EC0E  F00D         	call	_LEER_LCD	;wreg free
  4009   001C76                     
  4010                           ;LCD.c: 93:  TRISD = 0x00;
  4011   001C76  6A8A               	clrf	138,c	;volatile
  4012   001C78                     
  4013                           ;LCD.c: 94:     _delay((unsigned long)((100)*(32000000UL/4000000.0)));
  4014   001C78  0EA0               	movlw	160
  4015   001C7A                     u1267:
  4016   001C7A  D000               	nop2	
  4017   001C7C  2EE8               	decfsz	wreg,f,c
  4018   001C7E  D7FD               	bra	u1267
  4019   001C80                     
  4020                           ;LCD.c: 95:  LATDbits.LATD1 = 0;
  4021   001C80  9285               	bcf	133,1,c	;volatile
  4022   001C82                     
  4023                           ;LCD.c: 96:  LATDbits.LATD2 = 0;
  4024   001C82  9485               	bcf	133,2,c	;volatile
  4025   001C84                     
  4026                           ;LCD.c: 97:  LATDbits.LATD0 = 1;
  4027   001C84  8085               	bsf	133,0,c	;volatile
  4028   001C86                     
  4029                           ;LCD.c: 98:  aux = dato & 0xF0;
  4030   001C86  5002               	movf	ENVIA_CHAR@dato^0,w,c
  4031   001C88  0BF0               	andlw	240
  4032   001C8A  6E03               	movwf	ENVIA_CHAR@aux^0,c
  4033   001C8C                     
  4034                           ;LCD.c: 99:  ENVIA_NIBBLE(aux);
  4035   001C8C  5003               	movf	ENVIA_CHAR@aux^0,w,c
  4036   001C8E  EC7B  F00E         	call	_ENVIA_NIBBLE
  4037   001C92                     
  4038                           ;LCD.c: 100:  aux = dato << 4;
  4039   001C92  3802               	swapf	ENVIA_CHAR@dato^0,w,c
  4040   001C94  0BF0               	andlw	240
  4041   001C96  6E03               	movwf	ENVIA_CHAR@aux^0,c
  4042   001C98                     
  4043                           ;LCD.c: 101:  ENVIA_NIBBLE(aux);
  4044   001C98  5003               	movf	ENVIA_CHAR@aux^0,w,c
  4045   001C9A  EC7B  F00E         	call	_ENVIA_NIBBLE
  4046   001C9E  0012               	return		;funcret
  4047   001CA0                     __end_of_ENVIA_CHAR:
  4048                           	callstack 0
  4049                           
  4050 ;; *************** function _LEER_LCD *****************
  4051 ;; Defined at:
  4052 ;;		line 152 in file "LCD.c"
  4053 ;; Parameters:    Size  Location     Type
  4054 ;;		None
  4055 ;; Auto vars:     Size  Location     Type
  4056 ;;  aux             1    0[COMRAM] unsigned char 
  4057 ;; Return value:  Size  Location     Type
  4058 ;;                  1    wreg      void 
  4059 ;; Registers used:
  4060 ;;		wreg, status,2, status,0
  4061 ;; Tracked objects:
  4062 ;;		On entry : 0/0
  4063 ;;		On exit  : 0/0
  4064 ;;		Unchanged: 0/0
  4065 ;; Data sizes:     COMRAM   BANK0   BANK1   BANK2   BANK3   BANK4   BANK5   BANK6   BANK7   BANK8   BANK9  BANK10  BANK1
      +1  BANK12  BANK14
  4066 ;;      Params:         0       0       0       0       0       0       0       0       0       0       0       0       
      +0       0       0
  4067 ;;      Locals:         1       0       0       0       0       0       0       0       0       0       0       0       
      +0       0       0
  4068 ;;      Temps:          0       0       0       0       0       0       0       0       0       0       0       0       
      +0       0       0
  4069 ;;      Totals:         1       0       0       0       0       0       0       0       0       0       0       0       
      +0       0       0
  4070 ;;Total ram usage:        1 bytes
  4071 ;; Hardware stack levels used: 1
  4072 ;; This function calls:
  4073 ;;		Nothing
  4074 ;; This function is called by:
  4075 ;;		_ENVIA_CHAR
  4076 ;;		_ENVIA_LCD_CMD
  4077 ;; This function uses a non-reentrant model
  4078 ;;
  4079                           
  4080                           	psect	text19
  4081   001A1C                     __ptext19:
  4082                           	callstack 0
  4083   001A1C                     _LEER_LCD:
  4084                           	callstack 26
  4085   001A1C                     
  4086                           ;LCD.c: 154:  unsigned char aux;;LCD.c: 155:  TRISD = 0xF8;
  4087   001A1C  0EF8               	movlw	248
  4088   001A1E  6E8A               	movwf	138,c	;volatile
  4089   001A20                     
  4090                           ;LCD.c: 156:  LATDbits.LATD0 = 0;
  4091   001A20  9085               	bcf	133,0,c	;volatile
  4092   001A22                     
  4093                           ;LCD.c: 157:  LATDbits.LATD1 = 1;
  4094   001A22  8285               	bsf	133,1,c	;volatile
  4095   001A24                     
  4096                           ;LCD.c: 158:  LATDbits.LATD2 = 1;
  4097   001A24  8485               	bsf	133,2,c	;volatile
  4098   001A26                     
  4099                           ;LCD.c: 159:     _delay((unsigned long)((100)*(32000000UL/4000000.0)));
  4100   001A26  0EA0               	movlw	160
  4101   001A28                     u1277:
  4102   001A28  D000               	nop2	
  4103   001A2A  2EE8               	decfsz	wreg,f,c
  4104   001A2C  D7FD               	bra	u1277
  4105   001A2E                     
  4106                           ;LCD.c: 160:  aux = PORTD;
  4107   001A2E  CF8F F001          	movff	3983,LEER_LCD@aux	;volatile
  4108   001A32                     
  4109                           ;LCD.c: 161:  LATDbits.LATD2 = 0;
  4110   001A32  9485               	bcf	133,2,c	;volatile
  4111   001A34                     
  4112                           ;LCD.c: 162:     _delay((unsigned long)((100)*(32000000UL/4000000.0)));
  4113   001A34  0EA0               	movlw	160
  4114   001A36                     u1287:
  4115   001A36  D000               	nop2	
  4116   001A38  2EE8               	decfsz	wreg,f,c
  4117   001A3A  D7FD               	bra	u1287
  4118   001A3C                     
  4119                           ;LCD.c: 163:  LATDbits.LATD2 = 1;
  4120   001A3C  8485               	bsf	133,2,c	;volatile
  4121   001A3E                     
  4122                           ;LCD.c: 164:     _delay((unsigned long)((100)*(32000000UL/4000000.0)));
  4123   001A3E  0EA0               	movlw	160
  4124   001A40                     u1297:
  4125   001A40  D000               	nop2	
  4126   001A42  2EE8               	decfsz	wreg,f,c
  4127   001A44  D7FD               	bra	u1297
  4128   001A46                     
  4129                           ;LCD.c: 165:  LATDbits.LATD2 = 0;
  4130   001A46  9485               	bcf	133,2,c	;volatile
  4131   001A48                     l1012:
  4132                           
  4133                           ;LCD.c: 166:  aux = aux & 0x80;
  4134   001A48  5001               	movf	LEER_LCD@aux^0,w,c
  4135   001A4A  0B80               	andlw	128
  4136   001A4C  6E01               	movwf	LEER_LCD@aux^0,c
  4137                           
  4138                           ;LCD.c: 167:  while(aux == 0x80)
  4139   001A4E  EF3D  F00D         	goto	l1026
  4140   001A52                     l93:
  4141                           
  4142                           ;LCD.c: 168:         {;LCD.c: 169:             LATDbits.LATD2 = 1;
  4143   001A52  8485               	bsf	133,2,c	;volatile
  4144   001A54                     
  4145                           ;LCD.c: 170:             _delay((unsigned long)((100)*(32000000UL/4000000.0)));
  4146   001A54  0EA0               	movlw	160
  4147   001A56                     u1307:
  4148   001A56  D000               	nop2	
  4149   001A58  2EE8               	decfsz	wreg,f,c
  4150   001A5A  D7FD               	bra	u1307
  4151   001A5C                     
  4152                           ;LCD.c: 171:             aux = PORTD;
  4153   001A5C  CF8F F001          	movff	3983,LEER_LCD@aux	;volatile
  4154   001A60                     
  4155                           ;LCD.c: 172:             LATDbits.LATD2 = 0;
  4156   001A60  9485               	bcf	133,2,c	;volatile
  4157                           
  4158                           ;LCD.c: 173:             _delay((unsigned long)((100)*(32000000UL/4000000.0)));
  4159   001A62  0EA0               	movlw	160
  4160   001A64                     u1317:
  4161   001A64  D000               	nop2	
  4162   001A66  2EE8               	decfsz	wreg,f,c
  4163   001A68  D7FD               	bra	u1317
  4164   001A6A                     
  4165                           ;LCD.c: 174:             LATDbits.LATD2 = 1;
  4166   001A6A  8485               	bsf	133,2,c	;volatile
  4167                           
  4168                           ;LCD.c: 175:             _delay((unsigned long)((100)*(32000000UL/4000000.0)));
  4169   001A6C  0EA0               	movlw	160
  4170   001A6E                     u1327:
  4171   001A6E  D000               	nop2	
  4172   001A70  2EE8               	decfsz	wreg,f,c
  4173   001A72  D7FD               	bra	u1327
  4174   001A74                     
  4175                           ;LCD.c: 176:             LATDbits.LATD2 = 0;
  4176   001A74  9485               	bcf	133,2,c	;volatile
  4177   001A76  EF24  F00D         	goto	l1012
  4178   001A7A                     l1026:
  4179                           
  4180                           ;LCD.c: 167:  while(aux == 0x80)
  4181   001A7A  0E80               	movlw	128
  4182   001A7C  1801               	xorwf	LEER_LCD@aux^0,w,c
  4183   001A7E  B4D8               	btfsc	status,2,c
  4184   001A80  EF44  F00D         	goto	u11
  4185   001A84  EF46  F00D         	goto	u10
  4186   001A88                     u11:
  4187   001A88  EF29  F00D         	goto	l93
  4188   001A8C                     u10:
  4189   001A8C  0012               	return		;funcret
  4190   001A8E                     __end_of_LEER_LCD:
  4191                           	callstack 0
  4192                           
  4193 ;; *************** function _ENVIA_NIBBLE *****************
  4194 ;; Defined at:
  4195 ;;		line 126 in file "LCD.c"
  4196 ;; Parameters:    Size  Location     Type
  4197 ;;  dato            1    wreg     unsigned char 
  4198 ;; Auto vars:     Size  Location     Type
  4199 ;;  dato            1    0[COMRAM] unsigned char 
  4200 ;; Return value:  Size  Location     Type
  4201 ;;                  1    wreg      void 
  4202 ;; Registers used:
  4203 ;;		wreg, status,2, status,0
  4204 ;; Tracked objects:
  4205 ;;		On entry : 0/0
  4206 ;;		On exit  : 0/0
  4207 ;;		Unchanged: 0/0
  4208 ;; Data sizes:     COMRAM   BANK0   BANK1   BANK2   BANK3   BANK4   BANK5   BANK6   BANK7   BANK8   BANK9  BANK10  BANK1
      +1  BANK12  BANK14
  4209 ;;      Params:         0       0       0       0       0       0       0       0       0       0       0       0       
      +0       0       0
  4210 ;;      Locals:         1       0       0       0       0       0       0       0       0       0       0       0       
      +0       0       0
  4211 ;;      Temps:          0       0       0       0       0       0       0       0       0       0       0       0       
      +0       0       0
  4212 ;;      Totals:         1       0       0       0       0       0       0       0       0       0       0       0       
      +0       0       0
  4213 ;;Total ram usage:        1 bytes
  4214 ;; Hardware stack levels used: 1
  4215 ;; This function calls:
  4216 ;;		Nothing
  4217 ;; This function is called by:
  4218 ;;		_ENVIA_CHAR
  4219 ;;		_LCD_CONFIG
  4220 ;;		_ENVIA_LCD_CMD
  4221 ;; This function uses a non-reentrant model
  4222 ;;
  4223                           
  4224                           	psect	text20
  4225   001CF6                     __ptext20:
  4226                           	callstack 0
  4227   001CF6                     _ENVIA_NIBBLE:
  4228                           	callstack 26
  4229                           
  4230                           ;incstack = 0
  4231                           ;ENVIA_NIBBLE@dato stored from wreg
  4232   001CF6  6E01               	movwf	ENVIA_NIBBLE@dato^0,c
  4233   001CF8                     
  4234                           ;LCD.c: 126: void ENVIA_NIBBLE(unsigned char dato);LCD.c: 127: {;LCD.c: 128:  LATD &= 0x
      +                          0F;
  4235   001CF8  0E0F               	movlw	15
  4236   001CFA  1685               	andwf	133,f,c	;volatile
  4237                           
  4238                           ;LCD.c: 129:  dato &= 0xF0;
  4239   001CFC  0EF0               	movlw	240
  4240   001CFE  1601               	andwf	ENVIA_NIBBLE@dato^0,f,c
  4241                           
  4242                           ;LCD.c: 130:  LATD|= dato;
  4243   001D00  5001               	movf	ENVIA_NIBBLE@dato^0,w,c	;volatile
  4244   001D02  1285               	iorwf	133,f,c	;volatile
  4245   001D04                     
  4246                           ;LCD.c: 131:  LATDbits.LATD2 = 1;
  4247   001D04  8485               	bsf	133,2,c	;volatile
  4248   001D06                     
  4249                           ;LCD.c: 132:     _delay((unsigned long)((100)*(32000000UL/4000000.0)));
  4250   001D06  0EA0               	movlw	160
  4251   001D08                     u1337:
  4252   001D08  D000               	nop2	
  4253   001D0A  2EE8               	decfsz	wreg,f,c
  4254   001D0C  D7FD               	bra	u1337
  4255   001D0E                     
  4256                           ;LCD.c: 133:  LATDbits.LATD2 = 0;
  4257   001D0E  9485               	bcf	133,2,c	;volatile
  4258   001D10  0012               	return		;funcret
  4259   001D12                     __end_of_ENVIA_NIBBLE:
  4260                           	callstack 0
  4261                           
  4262                           	psect	rparam
  4263   000001                     ___rparam_used  equ	1
  4264   000000                     ___param_bank   equ	0
  4265   000000                     __Lparam        equ	__Lrparam
  4266   000000                     __Hparam        equ	__Hrparam
  4267                           
  4268                           	psect	config
  4269                           
  4270                           ;Config register CONFIG1L @ 0x300000
  4271                           ;	External Oscillator mode Selection bits
  4272                           ;	FEXTOSC = OFF, Oscillator not enabled
  4273                           ;	Power-up default value for COSC bits
  4274                           ;	RSTOSC = HFINTOSC_1MHZ, HFINTOSC with HFFRQ = 4 MHz and CDIV = 4:1
  4275   300000                     	org	3145728
  4276   300000  EC                 	db	236
  4277                           
  4278                           ;Config register CONFIG1H @ 0x300001
  4279                           ;	Clock Out Enable bit
  4280                           ;	CLKOUTEN = OFF, CLKOUT function is disabled
  4281                           ;	Clock Switch Enable bit
  4282                           ;	CSWEN = ON, Writing to NOSC and NDIV is allowed
  4283                           ;	Fail-Safe Clock Monitor Enable bit
  4284                           ;	FCMEN = ON, Fail-Safe Clock Monitor enabled
  4285   300001                     	org	3145729
  4286   300001  FF                 	db	255
  4287                           
  4288                           ;Config register CONFIG2L @ 0x300002
  4289                           ;	Master Clear Enable bit
  4290                           ;	MCLRE = EXTMCLR, MCLR pin (RE3) is MCLR
  4291                           ;	Power-up Timer Enable bit
  4292                           ;	PWRTE = ON, Power up timer enabled
  4293                           ;	Low-power BOR enable bit
  4294                           ;	LPBOREN = OFF, Low power BOR is disabled
  4295                           ;	Brown-out Reset Enable bits
  4296                           ;	BOREN = OFF, Brown-out Reset disabled
  4297   300002                     	org	3145730
  4298   300002  3D                 	db	61
  4299                           
  4300                           ;Config register CONFIG2H @ 0x300003
  4301                           ;	Brown Out Reset Voltage selection bits
  4302                           ;	BORV = VBOR_190, Brown-out Reset Voltage (VBOR) set to 1.90V
  4303                           ;	ZCD Disable bit
  4304                           ;	ZCD = OFF, ZCD disabled. ZCD can be enabled by setting the ZCDSEN bit of ZCDCON
  4305                           ;	PPSLOCK bit One-Way Set Enable bit
  4306                           ;	PPS1WAY = ON, PPSLOCK bit can be cleared and set only once; PPS registers remain locke
      +                          d after one clear/set cycle
  4307                           ;	Stack Full/Underflow Reset Enable bit
  4308                           ;	STVREN = ON, Stack full/underflow will cause Reset
  4309                           ;	Extended Instruction Set Enable bit
  4310                           ;	XINST = OFF, Extended Instruction Set and Indexed Addressing Mode disabled
  4311   300003                     	org	3145731
  4312   300003  FF                 	db	255
  4313                           
  4314                           ;Config register CONFIG3L @ 0x300004
  4315                           ;	WDT Period Select bits
  4316                           ;	WDTCPS = WDTCPS_31, Divider ratio 1:65536; software control of WDTPS
  4317                           ;	WDT operating mode
  4318                           ;	WDTE = OFF, WDT Disabled
  4319   300004                     	org	3145732
  4320   300004  9F                 	db	159
  4321                           
  4322                           ;Config register CONFIG3H @ 0x300005
  4323                           ;	WDT Window Select bits
  4324                           ;	WDTCWS = WDTCWS_7, window always open (100%); software control; keyed access not requi
      +                          red
  4325                           ;	WDT input clock selector
  4326                           ;	WDTCCS = SC, Software Control
  4327   300005                     	org	3145733
  4328   300005  FF                 	db	255
  4329                           
  4330                           ;Config register CONFIG4L @ 0x300006
  4331                           ;	Write Protection Block 0
  4332                           ;	WRT0 = OFF, Block 0 (000800-003FFFh) not write-protected
  4333                           ;	Write Protection Block 1
  4334                           ;	WRT1 = OFF, Block 1 (004000-007FFFh) not write-protected
  4335                           ;	Write Protection Block 2
  4336                           ;	WRT2 = OFF, Block 2 (008000-00BFFFh) not write-protected
  4337                           ;	Write Protection Block 3
  4338                           ;	WRT3 = OFF, Block 3 (00C000-00FFFFh) not write-protected
  4339                           ;	Write Protection Block 4
  4340                           ;	WRT4 = OFF, Block 4 (010000-013FFFh) not write-protected
  4341                           ;	Write Protection Block 5
  4342                           ;	WRT5 = OFF, Block 5 (014000-017FFFh) not write-protected
  4343                           ;	Write Protection Block 6
  4344                           ;	WRT6 = OFF, Block 6 (018000-01BFFFh) not write-protected
  4345                           ;	Write Protection Block 7
  4346                           ;	WRT7 = OFF, Block 7 (01C000-01FFFFh) not write-protected
  4347   300006                     	org	3145734
  4348   300006  FF                 	db	255
  4349                           
  4350                           ;Config register CONFIG4H @ 0x300007
  4351                           ;	Configuration Register Write Protection bit
  4352                           ;	WRTC = OFF, Configuration registers (300000-30000Bh) not write-protected
  4353                           ;	Boot Block Write Protection bit
  4354                           ;	WRTB = OFF, Boot Block (000000-0007FFh) not write-protected
  4355                           ;	Data EEPROM Write Protection bit
  4356                           ;	WRTD = OFF, Data EEPROM not write-protected
  4357                           ;	Scanner Enable bit
  4358                           ;	SCANE = ON, Scanner module is available for use, SCANMD bit can control the module
  4359                           ;	Low Voltage Programming Enable bit
  4360                           ;	LVP = OFF, HV on MCLR/VPP must be used for programming
  4361   300007                     	org	3145735
  4362   300007  DF                 	db	223
  4363                           
  4364                           ;Config register CONFIG5L @ 0x300008
  4365                           ;	UserNVM Program Memory Code Protection bit
  4366                           ;	CP = OFF, UserNVM code protection disabled
  4367                           ;	DataNVM Memory Code Protection bit
  4368                           ;	CPD = OFF, DataNVM code protection disabled
  4369   300008                     	org	3145736
  4370   300008  FF                 	db	255
  4371                           
  4372                           ;Config register CONFIG5H @ 0x300009
  4373                           ;	unspecified, using default values
  4374   300009                     	org	3145737
  4375   300009  FF                 	db	255
  4376                           
  4377                           ;Config register CONFIG6L @ 0x30000A
  4378                           ;	Table Read Protection Block 0
  4379                           ;	EBTR0 = OFF, Block 0 (000800-003FFFh) not protected from table reads executed in other
      +                           blocks
  4380                           ;	Table Read Protection Block 1
  4381                           ;	EBTR1 = OFF, Block 1 (004000-007FFFh) not protected from table reads executed in other
      +                           blocks
  4382                           ;	Table Read Protection Block 2
  4383                           ;	EBTR2 = OFF, Block 2 (008000-00BFFFh) not protected from table reads executed in other
      +                           blocks
  4384                           ;	Table Read Protection Block 3
  4385                           ;	EBTR3 = OFF, Block 3 (00C000-00FFFFh) not protected from table reads executed in other
      +                           blocks
  4386                           ;	Table Read Protection Block 4
  4387                           ;	EBTR4 = OFF, Block 4 (010000-013FFFh) not protected from table reads executed in other
      +                           blocks
  4388                           ;	Table Read Protection Block 5
  4389                           ;	EBTR5 = OFF, Block 5 (014000-017FFFh) not protected from table reads executed in other
      +                           blocks
  4390                           ;	Table Read Protection Block 6
  4391                           ;	EBTR6 = OFF, Block 6 (018000-01BFFFh) not protected from table reads executed in other
      +                           blocks
  4392                           ;	Table Read Protection Block 7
  4393                           ;	EBTR7 = OFF, Block 7 (01C000-01FFFFh) not protected from table reads executed in other
      +                           blocks
  4394   30000A                     	org	3145738
  4395   30000A  FF                 	db	255
  4396                           
  4397                           ;Config register CONFIG6H @ 0x30000B
  4398                           ;	Boot Block Table Read Protection bit
  4399                           ;	EBTRB = OFF, Boot Block (000000-0007FFh) not protected from table reads executed in ot
      +                          her blocks
  4400   30000B                     	org	3145739
  4401   30000B  FF                 	db	255
  4402                           tosu	equ	0xFFF
  4403                           tosh	equ	0xFFE
  4404                           tosl	equ	0xFFD
  4405                           stkptr	equ	0xFFC
  4406                           pclatu	equ	0xFFB
  4407                           pclath	equ	0xFFA
  4408                           pcl	equ	0xFF9
  4409                           tblptru	equ	0xFF8
  4410                           tblptrh	equ	0xFF7
  4411                           tblptrl	equ	0xFF6
  4412                           tablat	equ	0xFF5
  4413                           prodh	equ	0xFF4
  4414                           prodl	equ	0xFF3
  4415                           indf0	equ	0xFEF
  4416                           postinc0	equ	0xFEE
  4417                           postdec0	equ	0xFED
  4418                           preinc0	equ	0xFEC
  4419                           plusw0	equ	0xFEB
  4420                           fsr0h	equ	0xFEA
  4421                           fsr0l	equ	0xFE9
  4422                           wreg	equ	0xFE8
  4423                           indf1	equ	0xFE7
  4424                           postinc1	equ	0xFE6
  4425                           postdec1	equ	0xFE5
  4426                           preinc1	equ	0xFE4
  4427                           plusw1	equ	0xFE3
  4428                           fsr1h	equ	0xFE2
  4429                           fsr1l	equ	0xFE1
  4430                           bsr	equ	0xFE0
  4431                           indf2	equ	0xFDF
  4432                           postinc2	equ	0xFDE
  4433                           postdec2	equ	0xFDD
  4434                           preinc2	equ	0xFDC
  4435                           plusw2	equ	0xFDB
  4436                           fsr2h	equ	0xFDA
  4437                           fsr2l	equ	0xFD9
  4438                           status	equ	0xFD8

Data Sizes:
    Strings     44
    Constant    0
    Data        0
    BSS         2
    Persistent  0
    Stack       0

Auto Spaces:
    Space          Size  Autos    Used
    COMRAM           95     63      65
    BANK0           160      0       0
    BANK1           256      0       0
    BANK2           256      0       0
    BANK3           256      0       0
    BANK4           256      0       0
    BANK5           256      0       0
    BANK6           256      0       0
    BANK7           256      0       0
    BANK8           256      0       0
    BANK9           256      0       0
    BANK10          256      0       0
    BANK11          256      0       0
    BANK12          256      0       0
    BANK14           31      0       0

Pointer List with Targets:

    ESCRIBE_MENSAJE2@cadena	PTR const unsigned char  size(1) Largest target is 15
		 -> STR_1(CODE[13]), STR_2(CODE[15]), STR_3(CODE[9]), STR_4(CODE[4]), 
		 -> STR_5(CODE[3]), 

    strlen@a	PTR const unsigned char  size(1) Largest target is 15
		 -> STR_1(CODE[13]), STR_2(CODE[15]), STR_3(CODE[9]), STR_4(CODE[4]), 
		 -> STR_5(CODE[3]), 

    strlen@s	PTR const unsigned char  size(1) Largest target is 15
		 -> STR_1(CODE[13]), STR_2(CODE[15]), STR_3(CODE[9]), STR_4(CODE[4]), 
		 -> STR_5(CODE[3]), 


Critical Paths under _main in COMRAM

    _main->_LCD_ESCRIBE_VAR_INT
    _configuro->_LCD_INIT
    _LCD_INIT->_CURSOR_ONOFF
    _LCD_INIT->_LCD_CONFIG
    _LCD_CONFIG->_ENVIA_LCD_CMD
    _CURSOR_ONOFF->_ENVIA_LCD_CMD
    _CURSOR_HOME->_ENVIA_LCD_CMD
    _BORRAR_LCD->_ENVIA_LCD_CMD
    ___xxtofl->_tomamuestra_ADC
    ___fltol->___fldiv
    ___fldiv->___xxtofl
    _POS_CURSOR->_ENVIA_LCD_CMD
    _ENVIA_LCD_CMD->_ENVIA_NIBBLE
    _ENVIA_LCD_CMD->_LEER_LCD
    _LCD_ESCRIBE_VAR_INT->___fltol
    ___lwdiv->___lwmod
    _ESCRIBE_MENSAJE2->_ENVIA_CHAR
    _ESCRIBE_MENSAJE2->_strlen
    _ENVIA_CHAR->_ENVIA_NIBBLE
    _ENVIA_CHAR->_LEER_LCD

Critical Paths under _main in BANK0

    None.

Critical Paths under _main in BANK1

    None.

Critical Paths under _main in BANK2

    None.

Critical Paths under _main in BANK3

    None.

Critical Paths under _main in BANK4

    None.

Critical Paths under _main in BANK5

    None.

Critical Paths under _main in BANK6

    None.

Critical Paths under _main in BANK7

    None.

Critical Paths under _main in BANK8

    None.

Critical Paths under _main in BANK9

    None.

Critical Paths under _main in BANK10

    None.

Critical Paths under _main in BANK11

    None.

Critical Paths under _main in BANK12

    None.

Critical Paths under _main in BANK14

    None.

Call Graph Tables:

 ---------------------------------------------------------------------------------
 (Depth) Function   	        Calls       Base Space   Used Autos Params    Refs
 ---------------------------------------------------------------------------------
 (0) _main                                                 2     2      0    3925
                                             61 COMRAM     2     2      0
                         _BORRAR_LCD
                   _ESCRIBE_MENSAJE2
                _LCD_ESCRIBE_VAR_INT
                         _POS_CURSOR
                            ___fldiv
                            ___fltol
                           ___xxtofl
                          _configuro
                    _tomamuestra_ADC
 ---------------------------------------------------------------------------------
 (1) _tomamuestra_ADC                                      4     2      2       0
                                              0 COMRAM     4     2      2
 ---------------------------------------------------------------------------------
 (1) _configuro                                            0     0      0     525
                           _LCD_INIT
 ---------------------------------------------------------------------------------
 (2) _LCD_INIT                                             1     1      0     525
                                              4 COMRAM     1     1      0
                         _BORRAR_LCD
                        _CURSOR_HOME
                       _CURSOR_ONOFF
                         _LCD_CONFIG
 ---------------------------------------------------------------------------------
 (3) _LCD_CONFIG                                           1     1      0     135
                                              3 COMRAM     1     1      0
                      _ENVIA_LCD_CMD
                       _ENVIA_NIBBLE
 ---------------------------------------------------------------------------------
 (3) _CURSOR_ONOFF                                         1     1      0     150
                                              3 COMRAM     1     1      0
                      _ENVIA_LCD_CMD
 ---------------------------------------------------------------------------------
 (3) _CURSOR_HOME                                          0     0      0     120
                      _ENVIA_LCD_CMD
 ---------------------------------------------------------------------------------
 (3) _BORRAR_LCD                                           0     0      0     120
                      _ENVIA_LCD_CMD
 ---------------------------------------------------------------------------------
 (1) ___xxtofl                                            14    10      4     338
                                              4 COMRAM    14    10      4
                    _tomamuestra_ADC (ARG)
 ---------------------------------------------------------------------------------
 (1) ___fltol                                             10     6      4     231
                                             43 COMRAM    10     6      4
                            ___fldiv (ARG)
                           ___xxtofl (ARG)
                    _tomamuestra_ADC (ARG)
 ---------------------------------------------------------------------------------
 (1) ___fldiv                                             25    17      8    1125
                                             18 COMRAM    25    17      8
                           ___xxtofl (ARG)
                    _tomamuestra_ADC (ARG)
 ---------------------------------------------------------------------------------
 (1) _POS_CURSOR                                           2     1      1     328
                                              3 COMRAM     2     1      1
                      _ENVIA_LCD_CMD
 ---------------------------------------------------------------------------------
 (4) _ENVIA_LCD_CMD                                        2     2      0     120
                                              1 COMRAM     2     2      0
                       _ENVIA_NIBBLE
                           _LEER_LCD
 ---------------------------------------------------------------------------------
 (1) _LCD_ESCRIBE_VAR_INT                                  8     5      3     928
                                             53 COMRAM     8     5      3
                         _ENVIA_CHAR
                            ___fldiv (ARG)
                            ___fltol (ARG)
                            ___lwdiv
                            ___lwmod
                           ___xxtofl (ARG)
                    _tomamuestra_ADC (ARG)
 ---------------------------------------------------------------------------------
 (2) ___lwmod                                              5     1      4     167
                                              0 COMRAM     5     1      4
 ---------------------------------------------------------------------------------
 (2) ___lwdiv                                              7     3      4     170
                                              5 COMRAM     7     3      4
                            ___lwmod (ARG)
 ---------------------------------------------------------------------------------
 (1) _ESCRIBE_MENSAJE2                                     4     3      1     330
                                              3 COMRAM     4     3      1
                         _ENVIA_CHAR
                             _strlen
 ---------------------------------------------------------------------------------
 (2) _strlen                                               3     1      2      91
                                              0 COMRAM     3     1      2
 ---------------------------------------------------------------------------------
 (2) _ENVIA_CHAR                                           2     2      0     120
                                              1 COMRAM     2     2      0
                       _ENVIA_NIBBLE
                           _LEER_LCD
 ---------------------------------------------------------------------------------
 (5) _LEER_LCD                                             1     1      0      45
                                              0 COMRAM     1     1      0
 ---------------------------------------------------------------------------------
 (5) _ENVIA_NIBBLE                                         1     1      0      15
                                              0 COMRAM     1     1      0
 ---------------------------------------------------------------------------------
 Estimated maximum stack depth 5
 ---------------------------------------------------------------------------------

 Call Graph Graphs:

 _main (ROOT)
   _BORRAR_LCD
     _ENVIA_LCD_CMD
       _ENVIA_NIBBLE
       _LEER_LCD
   _ESCRIBE_MENSAJE2
     _ENVIA_CHAR
       _ENVIA_NIBBLE
       _LEER_LCD
     _strlen
   _LCD_ESCRIBE_VAR_INT
     _ENVIA_CHAR
     ___fldiv (ARG)
       ___xxtofl (ARG)
         _tomamuestra_ADC (ARG)
       _tomamuestra_ADC (ARG)
     ___fltol (ARG)
       ___fldiv (ARG)
       ___xxtofl (ARG)
       _tomamuestra_ADC (ARG)
     ___lwdiv (ARG)
       ___lwmod (ARG)
     ___lwmod (ARG)
     ___xxtofl (ARG)
     _tomamuestra_ADC (ARG)
   _POS_CURSOR
     _ENVIA_LCD_CMD
   ___fldiv
   ___fltol
   ___xxtofl
   _configuro
     _LCD_INIT
       _BORRAR_LCD
       _CURSOR_HOME
         _ENVIA_LCD_CMD
       _CURSOR_ONOFF
         _ENVIA_LCD_CMD
       _LCD_CONFIG
         _ENVIA_LCD_CMD
         _ENVIA_NIBBLE
   _tomamuestra_ADC

Address spaces:
Name               Size   Autos  Total    Usage
BIGRAM            3327      0       0      0.0%
BITBIGSFR          256      0       0      0.0%
BITBANK12          256      0       0      0.0%
BANK12             256      0       0      0.0%
BITBANK11          256      0       0      0.0%
BANK11             256      0       0      0.0%
BITBANK10          256      0       0      0.0%
BANK10             256      0       0      0.0%
BITBANK9           256      0       0      0.0%
BANK9              256      0       0      0.0%
BITBANK8           256      0       0      0.0%
BANK8              256      0       0      0.0%
BITBANK7           256      0       0      0.0%
BANK7              256      0       0      0.0%
BITBANK6           256      0       0      0.0%
BANK6              256      0       0      0.0%
BITBANK5           256      0       0      0.0%
BANK5              256      0       0      0.0%
BITBANK4           256      0       0      0.0%
BANK4              256      0       0      0.0%
BITBANK3           256      0       0      0.0%
BANK3              256      0       0      0.0%
BITBANK2           256      0       0      0.0%
BANK2              256      0       0      0.0%
BITBANK1           256      0       0      0.0%
BANK1              256      0       0      0.0%
BITBIGSFR_1lll     180      0       0      0.0%
BITBIGSFR_1h       164      0       0      0.0%
BITBANK0           160      0       0      0.0%
BANK0              160      0       0      0.0%
BITBIGSFR_1lh      131      0       0      0.0%
BITCOMRAM           95      0       0      0.0%
COMRAM              95     63      65     68.4%
BITBANK14           31      0       0      0.0%
BANK14              31      0       0      0.0%
BIGRAM_1            31      0       0      0.0%
BITBIGSFR_1llh       3      0       0      0.0%
STACK                0      0       0      0.0%
DATA                 0      0      65      0.0%


Microchip Technology PIC18 Macro Assembler V3.10 build 20250813170317 
Symbol Table                                                                                   Fri Feb 13 20:34:29 2026

                ___fldiv@aexp 002B                  ___fldiv@bexp 002A                  ___fldiv@sign 0023  
                          l32 19A8                            l45 1D22                            l62 1CCE  
                          l80 1D2A                            l74 1BC8                            l83 1B44  
                          l93 1A52                            l77 1C9E                            l86 1D10  
                          l95 1A8C                            l89 1C6C                            u10 1A8C  
                          u11 1A88                            u20 1CB2                            u21 1CAE  
                          u30 1CC8                            u31 1CC4                 ENVIA_CHAR@aux 0003  
                         l103 1C02                           l121 16DA                           l190 1CF4  
                         l184 1B86                           l187 1CD4                           l608 1932  
                         l802 1A12                           l812 1AE8                           l904 1266  
                         l809 1A1A                           l905 1284                           l906 12DC  
                         l819 1AF0                           l907 12CA                           l980 1506  
                         l893 13BA                           l973 14AA                           l990 1A1C  
                         l966 1412                           l895 1220                           l992 1A20  
                         l969 156E                           l994 1A22                           l898 11E4  
                         l996 1A24                           l988 1C3A                           l998 1A26  
                         u700 1AA0                           u701 1A9C                           u710 1ABE  
                         u711 1ABA                           u720 1AD4                           u800 105A  
                         u721 1AD0                           u801 1056                           u730 1946  
                         u810 106A                           u731 1942                           u811 1066  
                         u660 1C2E                           u740 1964                           u900 1230  
                         u820 10AC                           u661 1C2A                           u741 1960  
                         u901 122C                           u821 10A8                           u670 19C2  
                         u750 1982                           u910 1246                           u830 10BE  
                         u671 19BE                           u751 197E                           u911 1242  
                         u831 10BA                           u680 19E0                           u760 19A0  
                         u920 1264                           u840 10CE                           u681 19DC  
                         u761 199C                           u921 1260                           u841 10CA  
                         u770 1BC8                           u690 19FC                           u930 1284  
                         u850 110C                           u771 1BC4                           u691 19F8  
                         u931 1280                           u851 1108                           u940 1294  
                         u860 114C                           u780 1CE2                           u941 1290  
                         u861 1148                           u781 1CDE                           u950 12C2  
                         u870 11C0                           u790 1048                           u951 12BE  
                         u871 11BC                           u791 1044                           u960 12D8  
                         u880 11E2                           u961 12D4                           u881 11DE  
                         u970 12EC                           u890 120C                           u971 12E8  
                         u891 1208                           u980 1306                           u981 1302  
                         u990 134E                           u991 134A                   LEER_LCD@aux 0001  
                         wreg 0FE8                  ?_CURSOR_HOME 0001                ??_ENVIA_NIBBLE 0001  
                ___fltol@exp1 0035                ENVIA_CHAR@dato 0002                          l1000 1A2E  
                        l1010 1A46                          l1002 1A32                          l1020 1A6A  
                        l1012 1A48                          l1004 1A34                          l1100 1C80  
                        l1030 1D04                          l1022 1A74                          l1014 1A54  
                        l1006 1A3C                          l1110 1C92                          l1102 1C82  
                        l1032 1D06                          l1016 1A5C                          l1008 1A3E  
                        l1112 1C98                          l1104 1C84                          l1040 1C44  
                        l1034 1D0E                          l1018 1A60                          l1026 1A7A  
                        l1106 1C86                          l1050 1C54                          l1042 1C46  
                        l1130 1BE4                          l1028 1CF8                          l1108 1C8C  
                        l1052 1C5A                          l1044 1C4E                          l1036 1C3E  
                        l1060 1CA2                          l1124 1BCA                          l1220 1B5A  
                        l1054 1C60                          l1046 1C50                          l1038 1C40  
                        l1062 1CB2                          l1070 1AF2                          l1126 1BD0  
                        l1230 1B64                          l1222 1B5C                          l1214 1B46  
                        l1056 1C66                          l1048 1C52                          l1064 1CB8  
                        l1080 1B20                          l1072 1AF6                          l1128 1BE0  
                        l1232 1B78                          l1224 1B5E                          l1216 1B54  
                        l1058 1D1C                          l1066 1CC8                          l1090 1B3E  
                        l1082 1B26                          l1074 1AFC                          l1234 1B82  
                        l1226 1B60                          l1218 1B56                          l1092 1C70  
                        l1068 1D24                          l1084 1B2C                          l1076 1B0C  
                        l1228 1B62                          l1094 1C72                          l1086 1B32  
                        l1078 1B1A                          l1096 1C76                          l1600 1A06  
                        l1088 1B38                          l1098 1C78                          l1602 1A0C  
                        l1610 1AB0                          l1612 1ABE                          l1604 1A8E  
                        l1620 1936                          l1700 10CE                          l1614 1AD4  
                        l1606 1AA0                          l1630 1982                          l1622 1946  
                        l1710 110C                          l1702 10DE                          l1640 1B94  
                        l1616 1ADC                          l1608 1AA8                          l1632 198E  
                        l1624 1952                          l1712 111C                          l1720 113C  
                        l1704 10E0                          l1642 1B9A                          l1618 1AE2  
                        l1650 1620                          l1634 19A0                          l1626 1964  
                        l1730 117A                          l1722 114C                          l1714 1124  
                        l1706 10E6                          l1572 1C04                          l1644 1BB4  
                        l1636 1B88                          l1652 162C                          l1628 1970  
                        l1740 11C0                          l1732 118A                          l1724 114C  
                        l1716 1128                          l1708 10F6                          l1820 1898  
                        l1812 1858                          l1900 16F2                          l1574 1C0C  
                        l1646 1BB6                          l1638 1B94                          l1590 19D2  
                        l1582 19AA                          l1654 1640                          l1662 16AC  
                        l1750 120E                          l1742 11D4                          l1734 119A  
                        l1670 102E                          l1830 18C8                          l1822 18A6  
                        l1814 1882                          l1806 182E                          l1910 1730  
                        l1902 1704                          l1576 1C0E                          l1592 19E0  
                        l1584 19B0                          l1656 165C                          l1648 1570  
                        l1760 1256                          l1752 121E                          l1744 11E2  
                        l1736 11AA                          l1728 1160                          l1680 106A  
                        l1672 103A                          l1840 18F2                          l1832 18D2  
                        l1816 1884                          l1808 1844                          l1664 1CD0  
                        l1920 17BC                          l1912 1744                          l1904 171A  
                        l1578 1C2E                          l1594 19E6                          l1586 19C2  
                        l1658 1680                          l1762 1264                          l1754 1230  
                        l1746 11EE                          l1738 11B0                          l1690 1098  
                        l1682 107A                          l1674 1048                          l1842 1902  
                        l1818 1894                          l1850 13BE                          l1666 1CE2  
                        l1914 174E                          l1906 171E                          l1596 19FC  
                        l1588 19CA                          l1772 12EC                          l1780 1334  
                        l1756 1246                          l1764 1276                          l1748 120C  
                        l1692 109E                          l1684 107C                          l1676 104A  
                        l1844 1912                          l1828 18BE                          l1852 13CE  
                        l1916 1756                          l1908 1728                          l1598 1A04  
                        l1790 1396                          l1782 134E                          l1774 12F8  
                        l1766 1294                          l1758 124C                          l1694 10AC  
                        l1678 105A                          l1686 1082                          l1846 1922  
                        l1838 18E6                          l1870 1494                          l1862 144C  
                        l1854 13DC                          l1918 17B4                          l1792 139A  
                        l1784 1364                          l1776 1306                          l1768 12C2  
                        l1696 10AE                          l1688 1092                          l1880 1514  
                        l1872 14A0                          l1864 1454                          l1856 1422  
                        l1794 13A8                          l1786 137E                          l1778 1330  
                        l1698 10BE                          l1890 155C                          l1882 1516  
                        l1874 14DC                          l1866 1460                          l1858 1438  
                        l1796 13AE                          l1788 1394                          l1892 155E  
                        l1884 151A                          l1876 14E8                          l1868 1492  
                        l1798 13B0                          l1886 153E                          l1878 14F6  
                        l1888 154E                          l1896 16DC                          l1898 16EA  
                        STR_1 1010                          STR_2 1001                          STR_3 101D  
                        STR_4 1026                          STR_5 102A                          u1000 137E  
                        u1001 137A                          u1010 13A8                          u1011 13A4  
                        u1020 1844                          u1100 13DC                          u1021 1840  
                        u1101 13D8                          u1030 1878                          u1110 1438  
                        u1111 1434                          u1040 18A6                          u1120 148E  
                        u1041 18A2                          u1121 148A                          u1050 18BA  
                        u1130 14D8                          u1051 18B6                          u1035 186E  
                        u1131 14D4                          u1060 18E2                          u1140 14F6  
                        u1061 18DE                          u1141 14F2                          u1070 1902  
                        u1150 1506                          u1071 18FE                          u1151 1502  
                        u1207 1818                          u1080 1912                          u1160 1514  
                        u1081 190E                          u1161 1510                          u1217 1BD6  
                        u1170 154E                          u1090 13CE                          u1307 1A56  
                        u1171 154A                          u1091 13CA                          u1227 1BEA  
                        u1180 155C                          u1317 1A64                          u1181 1558  
                        u1237 1B02                          u1327 1A6E                          u1247 1B14  
                        _LATD 0F85                          u1337 1D08                          u1257 1C48  
                        u1267 1C7A                          u1277 1A28                          u1197 170E  
                        u1287 1A36                          u1297 1A40                          _T2PR 0FBB  
                        _main 16DC                          start FFFC               ___fldiv@new_exp 0024  
               ?_CURSOR_ONOFF 0001             ??_tomamuestra_ADC 0003                  ___param_bank 0000  
             ??_ENVIA_LCD_CMD 0002              __end_of_LCD_INIT 1C04              __end_of_LEER_LCD 1A8E  
               ___fltol@sign1 0034                         ?_main 0001                         _ADPCH 0F5A  
             __end_of___fldiv 13BC               __end_of___fltol 1934                         _T2CON 0FBC  
             __end_of___lwdiv 1A1C               __end_of___lwmod 1AF2                         _OSCEN 0ED7  
                       _PORTD 0F8F                         _TRISD 0F8A                   ?_POS_CURSOR 0004  
 __end_of_LCD_ESCRIBE_VAR_INT 16DC                         tablat 0FF5                         status 0FD8  
              ??_CURSOR_ONOFF 0004               __initialization 1D12                  __end_of_main 182E  
   LCD_ESCRIBE_VAR_INT@decena 003C                        ??_main 003E                 __activetblptr 0003  
   LCD_ESCRIBE_VAR_INT@millar 003A     LCD_ESCRIBE_VAR_INT@numero 0036     LCD_ESCRIBE_VAR_INT@unidad 003D  
                      _ADRESH 0F5F                        _ADRESL 0F5E                        _CCPR1H 0FAA  
                      _CCPR1L 0FA9                        _ANSELD 0F21                        _RC5PPS 0EF7  
                      _OSCFRQ 0ED9              __end_of___xxtofl 1570                     ??___fldiv 001B  
        __end_of_ENVIA_NIBBLE 1D12                     ??___fltol 0030                     ??___lwdiv 000A  
                   ??___lwmod 0005                        _cuenta 0040                        isa$std 0001  
                      _strlen 1C04                  __mediumconst 1000                        tblptrh 0FF7  
                      tblptrl 0FF6                        tblptru 0FF8                  ??_BORRAR_LCD 0004  
                ___xxtofl@arg 000F                     ?_LCD_INIT 0001                  ___xxtofl@exp 000E  
                ___xxtofl@val 0005                     ?_LEER_LCD 0001                    __accesstop 0060  
     __end_of__initialization 1D16                  ??_LCD_CONFIG 0004                 ___rparam_used 0001  
                ??_ENVIA_CHAR 0002                    ___fltol@f1 002C                __pcstackCOMRAM 0001  
          __end_of_BORRAR_LCD 1D2C              _ESCRIBE_MENSAJE2 1B88              ENVIA_LCD_CMD@aux 0003  
        __end_of_CURSOR_ONOFF 1CD0            __end_of_LCD_CONFIG 1B46            __end_of_ENVIA_CHAR 1CA0  
  LCD_ESCRIBE_VAR_INT@centena 003B               _tomamuestra_ADC 1CD0                    ??_LCD_INIT 0005  
                  ??_LEER_LCD 0001              ENVIA_NIBBLE@dato 0001                       _CCP1CON 0FAB  
                     ?_strlen 0001                     ?___xxtofl 0005                       _OSCCON1 0ED3  
                ??_POS_CURSOR 0005                       __Hparam 0000                       __Lparam 0000  
           __end_of_configuro 1B88                       ___fldiv 102E                       ___fltol 182E  
                     ___lwdiv 19AA                       ___lwmod 1A8E                  __psmallconst 1000  
       __end_of_ENVIA_LCD_CMD 1C6E                       __pcinit 1D12            __end_of_POS_CURSOR 19AA  
                     __ramtop 1000                       __ptext0 16DC                       __ptext1 1CD0  
                     __ptext2 1B46                       __ptext3 1BCA                       __ptext4 1AF2  
                     __ptext5 1CA0                       __ptext6 1D1C                       __ptext7 1D24  
                     __ptext8 13BC                       __ptext9 182E       __end_of_tomamuestra_ADC 1CF6  
                  ??___xxtofl 0009                  _ENVIA_NIBBLE 1CF6          end_of_initialization 1D16  
                     strlen@a 0003                       strlen@s 0001             ESCRIBE_MENSAJE2@i 0007  
               ___xxtofl@sign 000D                     _TRISAbits 0F87                     _TRISCbits 0F89  
                 ___fldiv@grs 0026                   ___fldiv@rem 001F      __end_of_ESCRIBE_MENSAJE2 1BCA  
                _CURSOR_ONOFF 1CA0            CURSOR_ONOFF@estado 0004                __end_of_strlen 1C3C  
               ??_CURSOR_HOME 0004              ?_tomamuestra_ADC 0001           start_initialization 1D12  
           ENVIA_LCD_CMD@dato 0002   LCD_ESCRIBE_VAR_INT@d_millar 0039                      ??_strlen 0003  
                   ___fldiv@a 0017                     ___fldiv@b 0013                   __pbssCOMRAM 0040  
         __end_of_CURSOR_HOME 1D24              ___lwdiv@dividend 0006                      ?___fldiv 0013  
                    ?___fltol 002C                      ?___lwdiv 0006                      ?___lwmod 0001  
                   _configuro 1B46                   __smallconst 1000           _LCD_ESCRIBE_VAR_INT 1570  
            ___lwdiv@quotient 000A                      _T2CLKCON 0FBE                      _LCD_INIT 1BCA  
                    _LEER_LCD 1A1C                      _LATDbits 0F85          ?_LCD_ESCRIBE_VAR_INT 0036  
              POS_CURSOR@fila 0005                    ?_configuro 0001                    _ADCON0bits 0F5B  
      ESCRIBE_MENSAJE2@cadena 0004                   _CURSOR_HOME 1D1C         ??_LCD_ESCRIBE_VAR_INT 0039  
                    __Hrparam 0000             ?_ESCRIBE_MENSAJE2 0004                      __Lrparam 0000  
          ??_ESCRIBE_MENSAJE2 0005                    _ANSELAbits 0F0C                    _ANSELCbits 0F1C  
                    ___xxtofl 13BC               ___lwdiv@divisor 0008               ___lwdiv@counter 000C  
                    __ptext10 102E                      __ptext11 1934                      __ptext20 1CF6  
                    __ptext12 1C3C                      __ptext13 1570                      __ptext14 1A8E  
                    __ptext15 19AA                      __ptext16 1B88                      __ptext17 1C04  
                    __ptext18 1C6E                      __ptext19 1A1C  LCD_ESCRIBE_VAR_INT@n_digitos 0038  
                  _BORRAR_LCD 1D24                    _LCD_CONFIG 1AF2                    _ENVIA_CHAR 1C6E  
                    isa$xinst 0000                 _ENVIA_LCD_CMD 1C3C                   ??_configuro 0006  
            ___lwmod@dividend 0001                ?_ENVIA_LCD_CMD 0001               ___lwmod@divisor 0003  
             ___lwmod@counter 0005           ESCRIBE_MENSAJE2@tam 0006                   ?_BORRAR_LCD 0001  
               ?_ENVIA_NIBBLE 0001                    _POS_CURSOR 1934                   ?_LCD_CONFIG 0001  
                 ?_ENVIA_CHAR 0001             POS_CURSOR@columna 0004  
